///////////////////////////////////////////////////////////////////////////////
//                                                                            /
// IAR C/C++ Compiler V8.10.1.40194/W32 for 8051        18/Aug/2015  14:37:12 /
// Copyright 2004-2011 IAR Systems AB.                                        /
//                                                                            /
//    Core               =  plain                                             /
//    Code model         =  banked                                            /
//    Data model         =  large                                             /
//    Calling convention =  xdata reentrant                                   /
//    Constant location  =  data_rom                                          /
//    Dptr setup         =  1,16                                              /
//    Source file        =  C:\Users\Administrator\Desktop\²ÊµÆ\Ô´³ÌÐò\Projec /
//                          ts\zstack\Samples\SampleApp\Source\LED.C          /
//    Command line       =  -f C:\Users\Administrator\Desktop\²ÊµÆ\Ô´³ÌÐò\Pro /
//                          jects\zstack\Samples\SampleApp\CC2530DB\..\..\..\ /
//                          Tools\CC2530DB\f8wCoord.cfg (-DCPU32MHZ           /
//                          -DROOT=__near_func -DMAC_CFG_APP_PENDING_QUEUE=TR /
//                          UE -DMAC_CFG_TX_DATA_MAX=5 -DMAC_CFG_TX_MAX=8     /
//                          -DMAC_CFG_RX_MAX=5 -DZDO_COORDINATOR -DRTR_NWK)   /
//                          -f C:\Users\Administrator\Desktop\²ÊµÆ\Ô´³ÌÐò\Pro /
//                          jects\zstack\Samples\SampleApp\CC2530DB\..\..\..\ /
//                          Tools\CC2530DB\f8wConfig.cfg (-DZIGBEEPRO         /
//                          -DSECURE=0 -DZG_SECURE_DYNAMIC=0 -DREFLECTOR      /
//                          -DDEFAULT_CHANLIST=0x00000800                     /
//                          -DZDAPP_CONFIG_PAN_ID=0xFF00                      /
//                          -DNWK_START_DELAY=100 -DEXTENDED_JOINING_RANDOM_M /
//                          ASK=0x007F -DBEACON_REQUEST_DELAY=100             /
//                          -DBEACON_REQ_DELAY_MASK=0x00FF                    /
//                          -DLINK_STATUS_JITTER_MASK=0x007F                  /
//                          -DROUTE_EXPIRY_TIME=30 -DAPSC_ACK_WAIT_DURATION_P /
//                          OLLED=3000 -DNWK_INDIRECT_MSG_TIMEOUT=7           /
//                          -DMAX_RREQ_ENTRIES=8 -DAPSC_MAX_FRAME_RETRIES=3   /
//                          -DNWK_MAX_DATA_RETRIES=2                          /
//                          -DMAX_POLL_FAILURE_RETRIES=2 -DMAX_BCAST=9        /
//                          -DAPS_MAX_GROUPS=16 -DMAX_RTG_ENTRIES=40          /
//                          -DNWK_MAX_BINDING_ENTRIES=4                       /
//                          -DMAX_BINDING_CLUSTER_IDS=4                       /
//                          "-DDEFAULT_KEY={0x01, 0x03, 0x05, 0x07, 0x09,     /
//                          0x0B, 0x0D, 0x0F, 0x00, 0x02, 0x04, 0x06, 0x08,   /
//                          0x0A, 0x0C, 0x0D}" -DMAC_MAX_FRAME_SIZE=116       /
//                          -DZDNWKMGR_MIN_TRANSMISSIONS=20 "-DCONST=const    /
//                          __code" -DGENERIC=__generic                       /
//                          -DRFD_RCVC_ALWAYS_ON=FALSE -DPOLL_RATE=1000       /
//                          -DQUEUED_POLL_RATE=100 -DRESPONSE_POLL_RATE=100)  /
//                          -DREJOIN_POLL_RATE=440 C:\Users\Administrator\Des /
//                          ktop\²ÊµÆ\Ô´³ÌÐò\Projects\zstack\Samples\SampleAp /
//                          p\Source\LED.C -D ZTOOL_P1 -D xMT_TASK -D         /
//                          xMT_SYS_FUNC -D xMT_ZDO_FUNC -D                   /
//                          LCD_SUPPORTED=DEBUG -lC                           /
//                          C:\Users\Administrator\Desktop\²ÊµÆ\Ô´³ÌÐò\Projec /
//                          ts\zstack\Samples\SampleApp\CC2530DB\CoordinatorE /
//                          B\List\ -lA C:\Users\Administrator\Desktop\²ÊµÆ\Ô /
//                          ´³ÌÐò\Projects\zstack\Samples\SampleApp\CC2530DB\ /
//                          CoordinatorEB\List\ --diag_suppress Pe001,Pa010   /
//                          -o C:\Users\Administrator\Desktop\²ÊµÆ\Ô´³ÌÐò\Pro /
//                          jects\zstack\Samples\SampleApp\CC2530DB\Coordinat /
//                          orEB\Obj\ -e --no_code_motion --debug             /
//                          --core=plain --dptr=16,1 --data_model=large       /
//                          --code_model=banked --calling_convention=xdata_re /
//                          entrant --place_constants=data_rom                /
//                          --nr_virtual_regs 16 -I                           /
//                          C:\Users\Administrator\Desktop\²ÊµÆ\Ô´³ÌÐò\Projec /
//                          ts\zstack\Samples\SampleApp\CC2530DB\ -I          /
//                          C:\Users\Administrator\Desktop\²ÊµÆ\Ô´³ÌÐò\Projec /
//                          ts\zstack\Samples\SampleApp\CC2530DB\..\Source\   /
//                          -I C:\Users\Administrator\Desktop\²ÊµÆ\Ô´³ÌÐò\Pro /
//                          jects\zstack\Samples\SampleApp\CC2530DB\..\..\..\ /
//                          ZMain\TI2530DB\ -I C:\Users\Administrator\Desktop /
//                          \²ÊµÆ\Ô´³ÌÐò\Projects\zstack\Samples\SampleApp\CC /
//                          2530DB\..\..\..\..\..\Components\hal\include\ -I  /
//                          C:\Users\Administrator\Desktop\²ÊµÆ\Ô´³ÌÐò\Projec /
//                          ts\zstack\Samples\SampleApp\CC2530DB\..\..\..\..\ /
//                          ..\Components\hal\target\CC2530EB\ -I             /
//                          C:\Users\Administrator\Desktop\²ÊµÆ\Ô´³ÌÐò\Projec /
//                          ts\zstack\Samples\SampleApp\CC2530DB\..\..\..\..\ /
//                          ..\Components\mac\include\ -I                     /
//                          C:\Users\Administrator\Desktop\²ÊµÆ\Ô´³ÌÐò\Projec /
//                          ts\zstack\Samples\SampleApp\CC2530DB\..\..\..\..\ /
//                          ..\Components\mac\high_level\ -I                  /
//                          C:\Users\Administrator\Desktop\²ÊµÆ\Ô´³ÌÐò\Projec /
//                          ts\zstack\Samples\SampleApp\CC2530DB\..\..\..\..\ /
//                          ..\Components\mac\low_level\srf04\ -I             /
//                          C:\Users\Administrator\Desktop\²ÊµÆ\Ô´³ÌÐò\Projec /
//                          ts\zstack\Samples\SampleApp\CC2530DB\..\..\..\..\ /
//                          ..\Components\mac\low_level\srf04\single_chip\    /
//                          -I C:\Users\Administrator\Desktop\²ÊµÆ\Ô´³ÌÐò\Pro /
//                          jects\zstack\Samples\SampleApp\CC2530DB\..\..\..\ /
//                          ..\..\Components\mt\ -I                           /
//                          C:\Users\Administrator\Desktop\²ÊµÆ\Ô´³ÌÐò\Projec /
//                          ts\zstack\Samples\SampleApp\CC2530DB\..\..\..\..\ /
//                          ..\Components\osal\include\ -I                    /
//                          C:\Users\Administrator\Desktop\²ÊµÆ\Ô´³ÌÐò\Projec /
//                          ts\zstack\Samples\SampleApp\CC2530DB\..\..\..\..\ /
//                          ..\Components\services\saddr\ -I                  /
//                          C:\Users\Administrator\Desktop\²ÊµÆ\Ô´³ÌÐò\Projec /
//                          ts\zstack\Samples\SampleApp\CC2530DB\..\..\..\..\ /
//                          ..\Components\services\sdata\ -I                  /
//                          C:\Users\Administrator\Desktop\²ÊµÆ\Ô´³ÌÐò\Projec /
//                          ts\zstack\Samples\SampleApp\CC2530DB\..\..\..\..\ /
//                          ..\Components\stack\af\ -I                        /
//                          C:\Users\Administrator\Desktop\²ÊµÆ\Ô´³ÌÐò\Projec /
//                          ts\zstack\Samples\SampleApp\CC2530DB\..\..\..\..\ /
//                          ..\Components\stack\nwk\ -I                       /
//                          C:\Users\Administrator\Desktop\²ÊµÆ\Ô´³ÌÐò\Projec /
//                          ts\zstack\Samples\SampleApp\CC2530DB\..\..\..\..\ /
//                          ..\Components\stack\sapi\ -I                      /
//                          C:\Users\Administrator\Desktop\²ÊµÆ\Ô´³ÌÐò\Projec /
//                          ts\zstack\Samples\SampleApp\CC2530DB\..\..\..\..\ /
//                          ..\Components\stack\sec\ -I                       /
//                          C:\Users\Administrator\Desktop\²ÊµÆ\Ô´³ÌÐò\Projec /
//                          ts\zstack\Samples\SampleApp\CC2530DB\..\..\..\..\ /
//                          ..\Components\stack\sys\ -I                       /
//                          C:\Users\Administrator\Desktop\²ÊµÆ\Ô´³ÌÐò\Projec /
//                          ts\zstack\Samples\SampleApp\CC2530DB\..\..\..\..\ /
//                          ..\Components\stack\zdo\ -I                       /
//                          C:\Users\Administrator\Desktop\²ÊµÆ\Ô´³ÌÐò\Projec /
//                          ts\zstack\Samples\SampleApp\CC2530DB\..\..\..\..\ /
//                          ..\Components\zmac\ -I C:\Users\Administrator\Des /
//                          ktop\²ÊµÆ\Ô´³ÌÐò\Projects\zstack\Samples\SampleAp /
//                          p\CC2530DB\..\..\..\..\..\Components\zmac\f8w\    /
//                          -Ohz --require_prototypes                         /
//    List file          =  C:\Users\Administrator\Desktop\²ÊµÆ\Ô´³ÌÐò\Projec /
//                          ts\zstack\Samples\SampleApp\CC2530DB\CoordinatorE /
//                          B\List\LED.s51                                    /
//                                                                            /
//                                                                            /
///////////////////////////////////////////////////////////////////////////////

        NAME LED

        RTMODEL "__SystemLibrary", "CLib"
        RTMODEL "__calling_convention", "xdata_reentrant"
        RTMODEL "__code_model", "banked"
        RTMODEL "__core", "plain"
        RTMODEL "__data_model", "large"
        RTMODEL "__dptr_size", "16"
        RTMODEL "__extended_stack", "disabled"
        RTMODEL "__location_for_constants", "data"
        RTMODEL "__number_of_dptrs", "1"
        RTMODEL "__rt_version", "1"

        RSEG DOVERLAY:DATA:NOROOT(0)
        RSEG IOVERLAY:IDATA:NOROOT(0)
        RSEG ISTACK:IDATA:NOROOT(0)
        RSEG PSTACK:XDATA:NOROOT(0)
        RSEG XSTACK:XDATA:NOROOT(0)

        EXTERN ?ALLOC_XSTACK8
        EXTERN ?BANKED_ENTER_XDATA
        EXTERN ?BANKED_LEAVE_XDATA
        EXTERN ?BDISPATCH
        EXTERN ?BRET
        EXTERN ?DEALLOC_XSTACK8
        EXTERN ?MOVE_LONG8_XDATA_XDATA
        EXTERN ?PUSH_XSTACK_I_TWO
        EXTERN ?S_SHL
        EXTERN ?V0
        EXTERN ?XSP
        EXTERN ?XSTACK_DISP0_8

        PUBLIC ??Dela_200ms?relay
        FUNCTION ??Dela_200ms?relay,0203H
        PUBLIC ??IO_Init?relay
        FUNCTION ??IO_Init?relay,0203H
        PUBLIC ??REST?relay
        FUNCTION ??REST?relay,0203H
        PUBLIC ??Sendcolor?relay
        FUNCTION ??Sendcolor?relay,0203H
        PUBLIC ??T0?relay
        FUNCTION ??T0?relay,0203H
        PUBLIC ??T1?relay
        FUNCTION ??T1?relay,0203H
        PUBLIC ??Twinkle?relay
        FUNCTION ??Twinkle?relay,0203H
        PUBLIC ??delay?relay
        FUNCTION ??delay?relay,0203H
        PUBLIC Dela_200ms
        FUNCTION Dela_200ms,0203H
        ARGFRAME XSTACK, 14, STACK
        ARGFRAME IOVERLAY, 0, STATIC
        ARGFRAME DOVERLAY, 0, STATIC
        PUBLIC IO_Init
        FUNCTION IO_Init,0203H
        ARGFRAME XSTACK, 62, STACK
        ARGFRAME IOVERLAY, 0, STATIC
        ARGFRAME DOVERLAY, 0, STATIC
        PUBWEAK P0DIR
        PUBWEAK P0INP
        PUBLIC REST
        FUNCTION REST,021203H
        ARGFRAME XSTACK, 62, STACK
        ARGFRAME IOVERLAY, 0, STATIC
        ARGFRAME DOVERLAY, 0, STATIC
        LOCFRAME ISTACK, 2, STACK
        PUBLIC Sendcolor
        FUNCTION Sendcolor,021203H
        ARGFRAME XSTACK, 16, STACK
        ARGFRAME IOVERLAY, 0, STATIC
        ARGFRAME DOVERLAY, 0, STATIC
        LOCFRAME ISTACK, 2, STACK
        LOCFRAME XSTACK, 62, STACK
        PUBLIC T0
        FUNCTION T0,0203H
        ARGFRAME XSTACK, 62, STACK
        ARGFRAME IOVERLAY, 0, STATIC
        ARGFRAME DOVERLAY, 0, STATIC
        PUBLIC T1
        FUNCTION T1,0203H
        ARGFRAME XSTACK, 62, STACK
        ARGFRAME IOVERLAY, 0, STATIC
        ARGFRAME DOVERLAY, 0, STATIC
        PUBLIC Twinkle
        FUNCTION Twinkle,021203H
        ARGFRAME XSTACK, 0, STACK
        LOCFRAME XSTACK, 16, STACK
        PUBWEAK _A_P0
        PUBLIC delay
        FUNCTION delay,0203H
        ARGFRAME XSTACK, 0, STACK
        ARGFRAME IOVERLAY, 0, STATIC
        ARGFRAME DOVERLAY, 0, STATIC
        
        CFI Names cfiNames0
        CFI StackFrame CFA_SP SP IDATA
        CFI StackFrame CFA_PSP16 PSP16 XDATA
        CFI StackFrame CFA_XSP16 XSP16 XDATA
        CFI StaticOverlayFrame CFA_IOVERLAY IOVERLAY
        CFI StaticOverlayFrame CFA_DOVERLAY DOVERLAY
        CFI Resource `PSW.CY`:1, `B.BR0`:1, `B.BR1`:1, `B.BR2`:1, `B.BR3`:1
        CFI Resource `B.BR4`:1, `B.BR5`:1, `B.BR6`:1, `B.BR7`:1, `VB.BR8`:1
        CFI Resource `VB.BR9`:1, `VB.BR10`:1, `VB.BR11`:1, `VB.BR12`:1
        CFI Resource `VB.BR13`:1, `VB.BR14`:1, `VB.BR15`:1, VB:8, B:8, A:8
        CFI Resource PSW:8, DPL0:8, DPH0:8, R0:8, R1:8, R2:8, R3:8, R4:8, R5:8
        CFI Resource R6:8, R7:8, V0:8, V1:8, V2:8, V3:8, V4:8, V5:8, V6:8, V7:8
        CFI Resource V8:8, V9:8, V10:8, V11:8, V12:8, V13:8, V14:8, V15:8, SP:8
        CFI Resource PSPH:8, PSPL:8, PSP16:16, XSPH:8, XSPL:8, XSP16:16
        CFI VirtualResource ?RET:24
        CFI Resource ?BRET_EXT:8
        CFI VirtualResource ?RET_HIGH:8, ?RET_LOW:8
        CFI ResourceParts PSP16 PSPH, PSPL
        CFI ResourceParts XSP16 XSPH, XSPL
        CFI ResourceParts ?RET ?BRET_EXT, ?RET_HIGH, ?RET_LOW
        CFI EndNames cfiNames0
        
        CFI Common cfiCommon0 Using cfiNames0
        CFI CodeAlign 1
        CFI DataAlign -1
        CFI ReturnAddress ?RET CODE
        CFI CFA_DOVERLAY Used
        CFI CFA_IOVERLAY Used
        CFI CFA_SP SP+-3
        CFI CFA_PSP16 PSP16+0
        CFI CFA_XSP16 XSP16+0
        CFI `PSW.CY` SameValue
        CFI `B.BR0` SameValue
        CFI `B.BR1` SameValue
        CFI `B.BR2` SameValue
        CFI `B.BR3` SameValue
        CFI `B.BR4` SameValue
        CFI `B.BR5` SameValue
        CFI `B.BR6` SameValue
        CFI `B.BR7` SameValue
        CFI `VB.BR8` SameValue
        CFI `VB.BR9` SameValue
        CFI `VB.BR10` SameValue
        CFI `VB.BR11` SameValue
        CFI `VB.BR12` SameValue
        CFI `VB.BR13` SameValue
        CFI `VB.BR14` SameValue
        CFI `VB.BR15` SameValue
        CFI VB SameValue
        CFI B Undefined
        CFI A Undefined
        CFI PSW SameValue
        CFI DPL0 SameValue
        CFI DPH0 SameValue
        CFI R0 Undefined
        CFI R1 Undefined
        CFI R2 Undefined
        CFI R3 Undefined
        CFI R4 Undefined
        CFI R5 Undefined
        CFI R6 SameValue
        CFI R7 SameValue
        CFI V0 SameValue
        CFI V1 SameValue
        CFI V2 SameValue
        CFI V3 SameValue
        CFI V4 SameValue
        CFI V5 SameValue
        CFI V6 SameValue
        CFI V7 SameValue
        CFI V8 SameValue
        CFI V9 SameValue
        CFI V10 SameValue
        CFI V11 SameValue
        CFI V12 SameValue
        CFI V13 SameValue
        CFI V14 SameValue
        CFI V15 SameValue
        CFI PSPH Undefined
        CFI PSPL Undefined
        CFI XSPH Undefined
        CFI XSPL Undefined
        CFI ?RET Concat
        CFI ?BRET_EXT Frame(CFA_SP, 3)
        CFI ?RET_HIGH Frame(CFA_SP, 2)
        CFI ?RET_LOW Frame(CFA_SP, 1)
        CFI EndCommon cfiCommon0
        
        
        CFI Common cfiCommon1 Using cfiNames0
        CFI CodeAlign 1
        CFI DataAlign -1
        CFI ReturnAddress ?RET CODE
        CFI CFA_DOVERLAY Used
        CFI CFA_IOVERLAY Used
        CFI CFA_SP SP+-2
        CFI CFA_PSP16 PSP16+0
        CFI CFA_XSP16 XSP16+0
        CFI `PSW.CY` SameValue
        CFI `B.BR0` SameValue
        CFI `B.BR1` SameValue
        CFI `B.BR2` SameValue
        CFI `B.BR3` SameValue
        CFI `B.BR4` SameValue
        CFI `B.BR5` SameValue
        CFI `B.BR6` SameValue
        CFI `B.BR7` SameValue
        CFI `VB.BR8` SameValue
        CFI `VB.BR9` SameValue
        CFI `VB.BR10` SameValue
        CFI `VB.BR11` SameValue
        CFI `VB.BR12` SameValue
        CFI `VB.BR13` SameValue
        CFI `VB.BR14` SameValue
        CFI `VB.BR15` SameValue
        CFI VB SameValue
        CFI B SameValue
        CFI A SameValue
        CFI PSW SameValue
        CFI DPL0 SameValue
        CFI DPH0 SameValue
        CFI R0 SameValue
        CFI R1 SameValue
        CFI R2 SameValue
        CFI R3 SameValue
        CFI R4 SameValue
        CFI R5 SameValue
        CFI R6 SameValue
        CFI R7 SameValue
        CFI V0 SameValue
        CFI V1 SameValue
        CFI V2 SameValue
        CFI V3 SameValue
        CFI V4 SameValue
        CFI V5 SameValue
        CFI V6 SameValue
        CFI V7 SameValue
        CFI V8 SameValue
        CFI V9 SameValue
        CFI V10 SameValue
        CFI V11 SameValue
        CFI V12 SameValue
        CFI V13 SameValue
        CFI V14 SameValue
        CFI V15 SameValue
        CFI PSPH Undefined
        CFI PSPL Undefined
        CFI XSPH Undefined
        CFI XSPL Undefined
        CFI ?RET Concat
        CFI ?BRET_EXT SameValue
        CFI ?RET_HIGH Frame(CFA_SP, 2)
        CFI ?RET_LOW Frame(CFA_SP, 1)
        CFI EndCommon cfiCommon1
        
Dela_200ms          SYMBOL "Dela_200ms"
??Dela_200ms?relay  SYMBOL "?relay", Dela_200ms
IO_Init             SYMBOL "IO_Init"
??IO_Init?relay     SYMBOL "?relay", IO_Init
REST                SYMBOL "REST"
??REST?relay        SYMBOL "?relay", REST
Sendcolor           SYMBOL "Sendcolor"
??Sendcolor?relay   SYMBOL "?relay", Sendcolor
T0                  SYMBOL "T0"
??T0?relay          SYMBOL "?relay", T0
T1                  SYMBOL "T1"
??T1?relay          SYMBOL "?relay", T1
Twinkle             SYMBOL "Twinkle"
??Twinkle?relay     SYMBOL "?relay", Twinkle
delay               SYMBOL "delay"
??delay?relay       SYMBOL "?relay", delay

// C:\Users\Administrator\Desktop\²ÊµÆ\Ô´³ÌÐò\Projects\zstack\Samples\SampleApp\Source\LED.C
//    1 #include "LED.h" 

        ASEGN SFR_AN:DATA:NOROOT,080H
// union <unnamed> volatile __sfr _A_P0
_A_P0:
        DATA8
        DS 1

        ASEGN SFR_AN:DATA:NOROOT,08fH
// unsigned char volatile __sfr P0INP
P0INP:
        DATA8
        DS 1

        ASEGN SFR_AN:DATA:NOROOT,0fdH
// unsigned char volatile __sfr P0DIR
P0DIR:
        DATA8
        DS 1
//    2 
//    3 

        RSEG BANKED_CODE:CODE:NOROOT(0)
//    4 void IO_Init(void)
IO_Init:
        CFI Block cfiBlock0 Using cfiCommon0
        CFI Function IO_Init
        CODE
//    5 {
        ; Saved register size: 0
        ; Auto size: 0
//    6   P0DIR |= 0x02;     //P1_0¶¨ÒåÎªÊä³ö
        ORL     0xfd,#0x2
//    7   P0INP |= 0X02;     //´ò¿ªÏÂÀ­
        ORL     0x8f,#0x2
//    8 }
        LJMP    ?BRET
        CFI EndBlock cfiBlock0
        REQUIRE P0DIR
        REQUIRE P0INP
//    9 
//   10 

        RSEG BANKED_CODE:CODE:NOROOT(0)
//   11 void delay()
delay:
        CFI Block cfiBlock1 Using cfiCommon0
        CFI Function delay
        CODE
//   12 {int i;
        ; Saved register size: 0
        ; Auto size: 0
//   13   for(i=0;i<50;i++);
//   14 }
        LJMP    ?BRET
        CFI EndBlock cfiBlock1
//   15 

        RSEG BANKED_CODE:CODE:NOROOT(0)
//   16 void T0()
T0:
        CFI Block cfiBlock2 Using cfiCommon0
        CFI Function T0
        CODE
//   17 {
        ; Saved register size: 0
        ; Auto size: 0
//   18   LED1 = 1;
        SETB    0x80.1
        CFI EndBlock cfiBlock2
//   19   __no_operation();
        REQUIRE ?Subroutine0
        REQUIRE _A_P0
        ; // Fall through to label ?Subroutine0
//   20   __no_operation();   
//   21   LED1 = 0;
//   22 }

        RSEG BANKED_CODE:CODE:NOROOT(0)
?Subroutine0:
        CFI Block cfiBlock3 Using cfiCommon0
        CFI NoFunction
        NOP
        NOP
        CLR     0x80.1
        LJMP    ?BRET
        CFI EndBlock cfiBlock3
//   23 

        RSEG BANKED_CODE:CODE:NOROOT(0)
//   24 void T1()
T1:
        CFI Block cfiBlock4 Using cfiCommon0
        CFI Function T1
        CODE
//   25 {
        ; Saved register size: 0
        ; Auto size: 0
//   26   LED1 = 1;  
        SETB    0x80.1
//   27   __no_operation();
        NOP
//   28   __no_operation();
        NOP
//   29   __no_operation();
        NOP
//   30   __no_operation();
        NOP
//   31   __no_operation();
        NOP
//   32   __no_operation();
        NOP
//   33   __no_operation();
        NOP
//   34   __no_operation();
        NOP
//   35   __no_operation();
        NOP
//   36   __no_operation();
        SJMP    ?Subroutine0
        CFI EndBlock cfiBlock4
        REQUIRE _A_P0
//   37   __no_operation();
//   38   LED1 = 0;
//   39 }
//   40 

        RSEG BANKED_CODE:CODE:NOROOT(0)
//   41 void REST()
REST:
        CFI Block cfiBlock5 Using cfiCommon0
        CFI Function REST
        CODE
//   42 {
        FUNCALL REST, delay
        LOCFRAME ISTACK, 2, STACK
        LOCFRAME PSTACK, 0, STACK
        LOCFRAME XSTACK, 0, STACK
        LOCFRAME IOVERLAY, 0, STATIC
        LOCFRAME DOVERLAY, 0, STATIC
        ARGFRAME ISTACK, 2, STACK
        ARGFRAME PSTACK, 0, STACK
        ARGFRAME XSTACK, 0, STACK
        ARGFRAME IOVERLAY, 0, STATIC
        ARGFRAME DOVERLAY, 0, STATIC
        PUSH    DPL
        CFI DPL0 Frame(CFA_SP, 4)
        CFI CFA_SP SP+-4
        PUSH    DPH
        CFI DPH0 Frame(CFA_SP, 5)
        CFI CFA_SP SP+-5
        ; Saved register size: 2
        ; Auto size: 0
//   43   LED1 = 0;
        CLR     0x80.1
//   44   delay();
        ; Setup parameters for call to function delay
        LCALL   ??delay?relay
//   45 }
        POP     DPH
        CFI DPH0 SameValue
        CFI CFA_SP SP+-4
        POP     DPL
        CFI DPL0 SameValue
        CFI CFA_SP SP+-3
        LJMP    ?BRET
        CFI EndBlock cfiBlock5
        REQUIRE _A_P0

        RSEG BANKED_CODE:CODE:NOROOT(0)
//   46 void Sendcolor(unsigned int r,unsigned int g,unsigned int b)
Sendcolor:
        CFI Block cfiBlock6 Using cfiCommon0
        CFI Function Sendcolor
        CODE
//   47 {   IO_Init();
        FUNCALL Sendcolor, IO_Init
        LOCFRAME ISTACK, 0, STACK
        LOCFRAME PSTACK, 0, STACK
        LOCFRAME XSTACK, 62, STACK
        LOCFRAME IOVERLAY, 0, STATIC
        LOCFRAME DOVERLAY, 0, STATIC
        ARGFRAME ISTACK, 0, STACK
        ARGFRAME PSTACK, 0, STACK
        ARGFRAME XSTACK, 62, STACK
        ARGFRAME IOVERLAY, 0, STATIC
        ARGFRAME DOVERLAY, 0, STATIC
        FUNCALL Sendcolor, T0
        LOCFRAME ISTACK, 0, STACK
        LOCFRAME PSTACK, 0, STACK
        LOCFRAME XSTACK, 62, STACK
        LOCFRAME IOVERLAY, 0, STATIC
        LOCFRAME DOVERLAY, 0, STATIC
        ARGFRAME ISTACK, 0, STACK
        ARGFRAME PSTACK, 0, STACK
        ARGFRAME XSTACK, 62, STACK
        ARGFRAME IOVERLAY, 0, STATIC
        ARGFRAME DOVERLAY, 0, STATIC
        FUNCALL Sendcolor, T1
        LOCFRAME ISTACK, 0, STACK
        LOCFRAME PSTACK, 0, STACK
        LOCFRAME XSTACK, 62, STACK
        LOCFRAME IOVERLAY, 0, STATIC
        LOCFRAME DOVERLAY, 0, STATIC
        ARGFRAME ISTACK, 0, STACK
        ARGFRAME PSTACK, 0, STACK
        ARGFRAME XSTACK, 62, STACK
        ARGFRAME IOVERLAY, 0, STATIC
        ARGFRAME DOVERLAY, 0, STATIC
        FUNCALL Sendcolor, REST
        LOCFRAME ISTACK, 0, STACK
        LOCFRAME PSTACK, 0, STACK
        LOCFRAME XSTACK, 62, STACK
        LOCFRAME IOVERLAY, 0, STATIC
        LOCFRAME DOVERLAY, 0, STATIC
        ARGFRAME ISTACK, 0, STACK
        ARGFRAME PSTACK, 0, STACK
        ARGFRAME XSTACK, 62, STACK
        ARGFRAME IOVERLAY, 0, STATIC
        ARGFRAME DOVERLAY, 0, STATIC
        MOV     A,#-0xe
        LCALL   ?BANKED_ENTER_XDATA
        CFI DPH0 load(1, XDATA, add(CFA_XSP16, literal(-1)))
        CFI DPL0 load(1, XDATA, add(CFA_XSP16, literal(-2)))
        CFI ?BRET_EXT load(1, XDATA, add(CFA_XSP16, literal(-3)))
        CFI ?RET_HIGH load(1, XDATA, add(CFA_XSP16, literal(-4)))
        CFI ?RET_LOW load(1, XDATA, add(CFA_XSP16, literal(-5)))
        CFI R7 load(1, XDATA, add(CFA_XSP16, literal(-6)))
        CFI V5 load(1, XDATA, add(CFA_XSP16, literal(-7)))
        CFI V4 load(1, XDATA, add(CFA_XSP16, literal(-8)))
        CFI V3 load(1, XDATA, add(CFA_XSP16, literal(-9)))
        CFI V2 load(1, XDATA, add(CFA_XSP16, literal(-10)))
        CFI V1 load(1, XDATA, add(CFA_XSP16, literal(-11)))
        CFI V0 load(1, XDATA, add(CFA_XSP16, literal(-12)))
        CFI VB load(1, XDATA, add(CFA_XSP16, literal(-13)))
        CFI R6 load(1, XDATA, add(CFA_XSP16, literal(-14)))
        CFI CFA_SP SP+0
        CFI CFA_XSP16 add(XSP16, 14)
        ; Saved register size: 14
        ; Auto size: 48
        MOV     A,#-0x30
        LCALL   ?ALLOC_XSTACK8
        CFI CFA_XSP16 add(XSP16, 62)
        MOV     A,R2
        MOV     R6,A
        MOV     A,R3
        MOV     R7,A
        MOV     ?V0 + 2,R4
        MOV     ?V0 + 3,R5
        MOV     A,#0x3e
        LCALL   ?XSTACK_DISP0_8
        MOVX    A,@DPTR
        MOV     ?V0 + 0,A
        INC     DPTR
        MOVX    A,@DPTR
        MOV     ?V0 + 1,A
        ; Setup parameters for call to function IO_Init
        LCALL   ??IO_Init?relay
//   48   unsigned int a[24]={0},p=0,j=0,k=0,n;
        MOV     DPTR,#`?<Constant {0}>`
        PUSH    DPL
        CFI CFA_SP SP+-1
        MOV     DPL,?XSP + 0
        MOV     DPH,?XSP + 1
        MOV     R4,DPL
        MOV     R5,DPH
        MOV     DPH,#(`?<Constant {0}>` >> 8) & 0xff
        POP     DPL
        CFI CFA_SP SP+0
        MOV     A,#0x30
        LCALL   ?MOVE_LONG8_XDATA_XDATA
//   49   
//   50     
//   51        for(p=0;p<8;p++){
        MOV     R2,A
        MOV     R3,A
//   52       a[p]=((g<<p)&0x80);
??Sendcolor_0:
        MOV     ?V0 + 4,?V0 + 2
        MOV     ?V0 + 5,?V0 + 3
        MOV     A,R2
        MOV     R0,#?V0 + 4
        LCALL   ?S_SHL
        MOV     A,?V0 + 4
        LCALL   ?Subroutine7 & 0xFFFF
//   53       
//   54        }
??CrossCallReturnLabel_8:
        MOV     DPL,A
        MOV     A,DPH
        ADDC    A,R1
        LCALL   ??Subroutine9_0 & 0xFFFF
??CrossCallReturnLabel_14:
        JC      ??Sendcolor_0
//   55        for(j=0;j<8;j++){
        MOV     R2,#0x0
        MOV     R3,#0x0
//   56       a[j+8]=((r<<j)&0x80);
??Sendcolor_1:
        MOV     ?V0 + 2,R6
        MOV     ?V0 + 3,R7
        MOV     A,R2
        MOV     R0,#?V0 + 2
        LCALL   ?S_SHL
        LCALL   ?Subroutine4 & 0xFFFF
//   57       
//   58        }
??CrossCallReturnLabel_4:
        ADD     A,#0x10
        LCALL   ?Subroutine3 & 0xFFFF
??CrossCallReturnLabel_12:
        JC      ??Sendcolor_1
//   59        for(k=0;k<8;k++){
        MOV     R2,#0x0
        MOV     R3,#0x0
//   60       a[k+16]=((b<<k)&0x80);
??Sendcolor_2:
        MOV     ?V0 + 2,?V0 + 0
        MOV     ?V0 + 3,?V0 + 1
        MOV     A,R2
        MOV     R0,#?V0 + 2
        LCALL   ?S_SHL
        LCALL   ?Subroutine4 & 0xFFFF
//   61       
//   62        }
??CrossCallReturnLabel_5:
        ADD     A,#0x20
        LCALL   ?Subroutine3 & 0xFFFF
??CrossCallReturnLabel_13:
        JC      ??Sendcolor_2
//   63        for(n=0;n<24;n++)
        MOV     R6,#0x0
        MOV     R7,#0x0
//   64        {
//   65         if(a[n]==0) T0();
??Sendcolor_3:
        MOV     A,R6
        MOV     R0,A
        MOV     A,R7
        MOV     R1,A
        MOV     A,R0
        CLR     C
        RLC     A
        MOV     R0,A
        MOV     A,R1
        RLC     A
        MOV     R1,A
        MOV     DPL,?XSP + 0
        MOV     DPH,?XSP + 1
        MOV     A,DPL
        ADD     A,R0
        MOV     DPL,A
        MOV     A,DPH
        ADDC    A,R1
        MOV     DPH,A
        MOVX    A,@DPTR
        MOV     R0,A
        INC     DPTR
        MOVX    A,@DPTR
        MOV     R1,A
        MOV     A,R0
        ORL     A,R1
        JNZ     ??Sendcolor_4
        ; Setup parameters for call to function T0
        LCALL   ??T0?relay
        SJMP    ??Sendcolor_5
//   66         else T1();
??Sendcolor_4:
        ; Setup parameters for call to function T1
        LCALL   ??T1?relay
//   67 
//   68        }
??Sendcolor_5:
        LCALL   ?Subroutine8 & 0xFFFF
??CrossCallReturnLabel_10:
        SUBB    A,#0x18
        MOV     A,R7
        SUBB    A,#0x0
        JC      ??Sendcolor_3
//   69   LED1 = 1;
        SETB    0x80.1
//   70   REST();
        ; Setup parameters for call to function REST
        LCALL   ??REST?relay
//   71 
//   72 }
        MOV     A,#0x30
        LCALL   ?DEALLOC_XSTACK8
        CFI EndBlock cfiBlock6
        REQUIRE ?Subroutine1
        REQUIRE _A_P0
        ; // Fall through to label ?Subroutine1

        RSEG BANKED_CODE:CODE:NOROOT(0)
?Subroutine1:
        CFI Block cfiBlock7 Using cfiCommon0
        CFI NoFunction
        CFI CFA_SP SP+0
        CFI CFA_XSP16 add(XSP16, 14)
        CFI VB load(1, XDATA, add(CFA_XSP16, literal(-13)))
        CFI DPL0 load(1, XDATA, add(CFA_XSP16, literal(-2)))
        CFI DPH0 load(1, XDATA, add(CFA_XSP16, literal(-1)))
        CFI R6 load(1, XDATA, add(CFA_XSP16, literal(-14)))
        CFI R7 load(1, XDATA, add(CFA_XSP16, literal(-6)))
        CFI V0 load(1, XDATA, add(CFA_XSP16, literal(-12)))
        CFI V1 load(1, XDATA, add(CFA_XSP16, literal(-11)))
        CFI V2 load(1, XDATA, add(CFA_XSP16, literal(-10)))
        CFI V3 load(1, XDATA, add(CFA_XSP16, literal(-9)))
        CFI V4 load(1, XDATA, add(CFA_XSP16, literal(-8)))
        CFI V5 load(1, XDATA, add(CFA_XSP16, literal(-7)))
        CFI ?BRET_EXT load(1, XDATA, add(CFA_XSP16, literal(-3)))
        CFI ?RET_HIGH load(1, XDATA, add(CFA_XSP16, literal(-4)))
        CFI ?RET_LOW load(1, XDATA, add(CFA_XSP16, literal(-5)))
        MOV     R7,#0x6
        LJMP    ?BANKED_LEAVE_XDATA
        CFI EndBlock cfiBlock7

        RSEG BANKED_CODE:CODE:NOROOT(0)
?Subroutine4:
        CFI Block cfiCond8 Using cfiCommon0
        CFI NoFunction
        CFI Conditional ??CrossCallReturnLabel_4
        CFI R6 load(1, XDATA, add(CFA_XSP16, literal(-14)))
        CFI VB load(1, XDATA, add(CFA_XSP16, literal(-13)))
        CFI V0 load(1, XDATA, add(CFA_XSP16, literal(-12)))
        CFI V1 load(1, XDATA, add(CFA_XSP16, literal(-11)))
        CFI V2 load(1, XDATA, add(CFA_XSP16, literal(-10)))
        CFI V3 load(1, XDATA, add(CFA_XSP16, literal(-9)))
        CFI V4 load(1, XDATA, add(CFA_XSP16, literal(-8)))
        CFI V5 load(1, XDATA, add(CFA_XSP16, literal(-7)))
        CFI R7 load(1, XDATA, add(CFA_XSP16, literal(-6)))
        CFI ?RET_LOW load(1, XDATA, add(CFA_XSP16, literal(-5)))
        CFI ?RET_HIGH load(1, XDATA, add(CFA_XSP16, literal(-4)))
        CFI ?BRET_EXT load(1, XDATA, add(CFA_XSP16, literal(-3)))
        CFI DPL0 load(1, XDATA, add(CFA_XSP16, literal(-2)))
        CFI DPH0 load(1, XDATA, add(CFA_XSP16, literal(-1)))
        CFI CFA_SP SP+0
        CFI CFA_XSP16 add(XSP16, 62)
        CFI Block cfiCond9 Using cfiCommon0
        CFI (cfiCond9) NoFunction
        CFI (cfiCond9) Conditional ??CrossCallReturnLabel_5
        CFI (cfiCond9) R6 load(1, XDATA, add(CFA_XSP16, literal(-14)))
        CFI (cfiCond9) VB load(1, XDATA, add(CFA_XSP16, literal(-13)))
        CFI (cfiCond9) V0 load(1, XDATA, add(CFA_XSP16, literal(-12)))
        CFI (cfiCond9) V1 load(1, XDATA, add(CFA_XSP16, literal(-11)))
        CFI (cfiCond9) V2 load(1, XDATA, add(CFA_XSP16, literal(-10)))
        CFI (cfiCond9) V3 load(1, XDATA, add(CFA_XSP16, literal(-9)))
        CFI (cfiCond9) V4 load(1, XDATA, add(CFA_XSP16, literal(-8)))
        CFI (cfiCond9) V5 load(1, XDATA, add(CFA_XSP16, literal(-7)))
        CFI (cfiCond9) R7 load(1, XDATA, add(CFA_XSP16, literal(-6)))
        CFI (cfiCond9) ?RET_LOW load(1, XDATA, add(CFA_XSP16, literal(-5)))
        CFI (cfiCond9) ?RET_HIGH load(1, XDATA, add(CFA_XSP16, literal(-4)))
        CFI (cfiCond9) ?BRET_EXT load(1, XDATA, add(CFA_XSP16, literal(-3)))
        CFI (cfiCond9) DPL0 load(1, XDATA, add(CFA_XSP16, literal(-2)))
        CFI (cfiCond9) DPH0 load(1, XDATA, add(CFA_XSP16, literal(-1)))
        CFI (cfiCond9) CFA_SP SP+0
        CFI (cfiCond9) CFA_XSP16 add(XSP16, 62)
        CFI Block cfiPicker10 Using cfiCommon1
        CFI (cfiPicker10) NoFunction
        CFI (cfiPicker10) Picker
        MOV     A,?V0 + 2
        LCALL   ?Subroutine7 & 0xFFFF
??CrossCallReturnLabel_9:
        MOV     R0,A
        MOV     A,DPH
        ADDC    A,R1
        MOV     R1,A
        MOV     A,R0
        RET
        CFI EndBlock cfiCond8
        CFI EndBlock cfiCond9
        CFI EndBlock cfiPicker10

        RSEG BANKED_CODE:CODE:NOROOT(0)
?Subroutine7:
        CFI Block cfiCond11 Using cfiCommon0
        CFI NoFunction
        CFI Conditional ??CrossCallReturnLabel_8
        CFI R6 load(1, XDATA, add(CFA_XSP16, literal(-14)))
        CFI VB load(1, XDATA, add(CFA_XSP16, literal(-13)))
        CFI V0 load(1, XDATA, add(CFA_XSP16, literal(-12)))
        CFI V1 load(1, XDATA, add(CFA_XSP16, literal(-11)))
        CFI V2 load(1, XDATA, add(CFA_XSP16, literal(-10)))
        CFI V3 load(1, XDATA, add(CFA_XSP16, literal(-9)))
        CFI V4 load(1, XDATA, add(CFA_XSP16, literal(-8)))
        CFI V5 load(1, XDATA, add(CFA_XSP16, literal(-7)))
        CFI R7 load(1, XDATA, add(CFA_XSP16, literal(-6)))
        CFI ?RET_LOW load(1, XDATA, add(CFA_XSP16, literal(-5)))
        CFI ?RET_HIGH load(1, XDATA, add(CFA_XSP16, literal(-4)))
        CFI ?BRET_EXT load(1, XDATA, add(CFA_XSP16, literal(-3)))
        CFI DPL0 load(1, XDATA, add(CFA_XSP16, literal(-2)))
        CFI DPH0 load(1, XDATA, add(CFA_XSP16, literal(-1)))
        CFI CFA_SP SP+0
        CFI CFA_XSP16 add(XSP16, 62)
        CFI Block cfiCond12 Using cfiCommon0
        CFI (cfiCond12) NoFunction
        CFI (cfiCond12) Conditional ??CrossCallReturnLabel_9, ??CrossCallReturnLabel_4
        CFI (cfiCond12) R6 load(1, XDATA, add(CFA_XSP16, literal(-14)))
        CFI (cfiCond12) VB load(1, XDATA, add(CFA_XSP16, literal(-13)))
        CFI (cfiCond12) V0 load(1, XDATA, add(CFA_XSP16, literal(-12)))
        CFI (cfiCond12) V1 load(1, XDATA, add(CFA_XSP16, literal(-11)))
        CFI (cfiCond12) V2 load(1, XDATA, add(CFA_XSP16, literal(-10)))
        CFI (cfiCond12) V3 load(1, XDATA, add(CFA_XSP16, literal(-9)))
        CFI (cfiCond12) V4 load(1, XDATA, add(CFA_XSP16, literal(-8)))
        CFI (cfiCond12) V5 load(1, XDATA, add(CFA_XSP16, literal(-7)))
        CFI (cfiCond12) R7 load(1, XDATA, add(CFA_XSP16, literal(-6)))
        CFI (cfiCond12) ?RET_LOW load(1, XDATA, add(CFA_XSP16, literal(-5)))
        CFI (cfiCond12) ?RET_HIGH load(1, XDATA, add(CFA_XSP16, literal(-4)))
        CFI (cfiCond12) ?BRET_EXT load(1, XDATA, add(CFA_XSP16, literal(-3)))
        CFI (cfiCond12) DPL0 load(1, XDATA, add(CFA_XSP16, literal(-2)))
        CFI (cfiCond12) DPH0 load(1, XDATA, add(CFA_XSP16, literal(-1)))
        CFI (cfiCond12) CFA_SP SP+0
        CFI (cfiCond12) CFA_XSP16 add(XSP16, 62)
        CFI Block cfiCond13 Using cfiCommon0
        CFI (cfiCond13) NoFunction
        CFI (cfiCond13) Conditional ??CrossCallReturnLabel_9, ??CrossCallReturnLabel_5
        CFI (cfiCond13) R6 load(1, XDATA, add(CFA_XSP16, literal(-14)))
        CFI (cfiCond13) VB load(1, XDATA, add(CFA_XSP16, literal(-13)))
        CFI (cfiCond13) V0 load(1, XDATA, add(CFA_XSP16, literal(-12)))
        CFI (cfiCond13) V1 load(1, XDATA, add(CFA_XSP16, literal(-11)))
        CFI (cfiCond13) V2 load(1, XDATA, add(CFA_XSP16, literal(-10)))
        CFI (cfiCond13) V3 load(1, XDATA, add(CFA_XSP16, literal(-9)))
        CFI (cfiCond13) V4 load(1, XDATA, add(CFA_XSP16, literal(-8)))
        CFI (cfiCond13) V5 load(1, XDATA, add(CFA_XSP16, literal(-7)))
        CFI (cfiCond13) R7 load(1, XDATA, add(CFA_XSP16, literal(-6)))
        CFI (cfiCond13) ?RET_LOW load(1, XDATA, add(CFA_XSP16, literal(-5)))
        CFI (cfiCond13) ?RET_HIGH load(1, XDATA, add(CFA_XSP16, literal(-4)))
        CFI (cfiCond13) ?BRET_EXT load(1, XDATA, add(CFA_XSP16, literal(-3)))
        CFI (cfiCond13) DPL0 load(1, XDATA, add(CFA_XSP16, literal(-2)))
        CFI (cfiCond13) DPH0 load(1, XDATA, add(CFA_XSP16, literal(-1)))
        CFI (cfiCond13) CFA_SP SP+0
        CFI (cfiCond13) CFA_XSP16 add(XSP16, 62)
        CFI Block cfiPicker14 Using cfiCommon1
        CFI (cfiPicker14) NoFunction
        CFI (cfiPicker14) Picker
        ANL     A,#0x80
        MOV     R4,A
        MOV     A,R2
        MOV     R0,A
        MOV     A,R3
        MOV     R1,A
        MOV     A,R0
        CLR     C
        RLC     A
        MOV     R0,A
        MOV     A,R1
        RLC     A
        MOV     R1,A
        MOV     DPL,?XSP + 0
        MOV     DPH,?XSP + 1
        MOV     A,DPL
        ADD     A,R0
        RET
        CFI EndBlock cfiCond11
        CFI EndBlock cfiCond12
        CFI EndBlock cfiCond13
        CFI EndBlock cfiPicker14

        RSEG BANKED_CODE:CODE:NOROOT(0)
?Subroutine3:
        CFI Block cfiCond15 Using cfiCommon0
        CFI NoFunction
        CFI Conditional ??CrossCallReturnLabel_12
        CFI R6 load(1, XDATA, add(CFA_XSP16, literal(-14)))
        CFI VB load(1, XDATA, add(CFA_XSP16, literal(-13)))
        CFI V0 load(1, XDATA, add(CFA_XSP16, literal(-12)))
        CFI V1 load(1, XDATA, add(CFA_XSP16, literal(-11)))
        CFI V2 load(1, XDATA, add(CFA_XSP16, literal(-10)))
        CFI V3 load(1, XDATA, add(CFA_XSP16, literal(-9)))
        CFI V4 load(1, XDATA, add(CFA_XSP16, literal(-8)))
        CFI V5 load(1, XDATA, add(CFA_XSP16, literal(-7)))
        CFI R7 load(1, XDATA, add(CFA_XSP16, literal(-6)))
        CFI ?RET_LOW load(1, XDATA, add(CFA_XSP16, literal(-5)))
        CFI ?RET_HIGH load(1, XDATA, add(CFA_XSP16, literal(-4)))
        CFI ?BRET_EXT load(1, XDATA, add(CFA_XSP16, literal(-3)))
        CFI DPL0 load(1, XDATA, add(CFA_XSP16, literal(-2)))
        CFI DPH0 load(1, XDATA, add(CFA_XSP16, literal(-1)))
        CFI CFA_SP SP+0
        CFI CFA_XSP16 add(XSP16, 62)
        CFI Block cfiCond16 Using cfiCommon0
        CFI (cfiCond16) NoFunction
        CFI (cfiCond16) Conditional ??CrossCallReturnLabel_13
        CFI (cfiCond16) R6 load(1, XDATA, add(CFA_XSP16, literal(-14)))
        CFI (cfiCond16) VB load(1, XDATA, add(CFA_XSP16, literal(-13)))
        CFI (cfiCond16) V0 load(1, XDATA, add(CFA_XSP16, literal(-12)))
        CFI (cfiCond16) V1 load(1, XDATA, add(CFA_XSP16, literal(-11)))
        CFI (cfiCond16) V2 load(1, XDATA, add(CFA_XSP16, literal(-10)))
        CFI (cfiCond16) V3 load(1, XDATA, add(CFA_XSP16, literal(-9)))
        CFI (cfiCond16) V4 load(1, XDATA, add(CFA_XSP16, literal(-8)))
        CFI (cfiCond16) V5 load(1, XDATA, add(CFA_XSP16, literal(-7)))
        CFI (cfiCond16) R7 load(1, XDATA, add(CFA_XSP16, literal(-6)))
        CFI (cfiCond16) ?RET_LOW load(1, XDATA, add(CFA_XSP16, literal(-5)))
        CFI (cfiCond16) ?RET_HIGH load(1, XDATA, add(CFA_XSP16, literal(-4)))
        CFI (cfiCond16) ?BRET_EXT load(1, XDATA, add(CFA_XSP16, literal(-3)))
        CFI (cfiCond16) DPL0 load(1, XDATA, add(CFA_XSP16, literal(-2)))
        CFI (cfiCond16) DPH0 load(1, XDATA, add(CFA_XSP16, literal(-1)))
        CFI (cfiCond16) CFA_SP SP+0
        CFI (cfiCond16) CFA_XSP16 add(XSP16, 62)
        CFI Block cfiPicker17 Using cfiCommon1
        CFI (cfiPicker17) NoFunction
        CFI (cfiPicker17) Picker
        MOV     DPL,A
        MOV     A,R1
        ADDC    A,#0x0
        CFI EndBlock cfiCond15
        CFI EndBlock cfiCond16
        CFI EndBlock cfiPicker17
        REQUIRE ??Subroutine9_0
        ; // Fall through to label ??Subroutine9_0

        RSEG BANKED_CODE:CODE:NOROOT(0)
??Subroutine9_0:
        CFI Block cfiCond18 Using cfiCommon0
        CFI NoFunction
        CFI Conditional ??CrossCallReturnLabel_14
        CFI R6 load(1, XDATA, add(CFA_XSP16, literal(-14)))
        CFI VB load(1, XDATA, add(CFA_XSP16, literal(-13)))
        CFI V0 load(1, XDATA, add(CFA_XSP16, literal(-12)))
        CFI V1 load(1, XDATA, add(CFA_XSP16, literal(-11)))
        CFI V2 load(1, XDATA, add(CFA_XSP16, literal(-10)))
        CFI V3 load(1, XDATA, add(CFA_XSP16, literal(-9)))
        CFI V4 load(1, XDATA, add(CFA_XSP16, literal(-8)))
        CFI V5 load(1, XDATA, add(CFA_XSP16, literal(-7)))
        CFI R7 load(1, XDATA, add(CFA_XSP16, literal(-6)))
        CFI ?RET_LOW load(1, XDATA, add(CFA_XSP16, literal(-5)))
        CFI ?RET_HIGH load(1, XDATA, add(CFA_XSP16, literal(-4)))
        CFI ?BRET_EXT load(1, XDATA, add(CFA_XSP16, literal(-3)))
        CFI DPL0 load(1, XDATA, add(CFA_XSP16, literal(-2)))
        CFI DPH0 load(1, XDATA, add(CFA_XSP16, literal(-1)))
        CFI CFA_SP SP+0
        CFI CFA_XSP16 add(XSP16, 62)
        CFI Block cfiCond19 Using cfiCommon0
        CFI (cfiCond19) NoFunction
        CFI (cfiCond19) Conditional ??CrossCallReturnLabel_12
        CFI (cfiCond19) R6 load(1, XDATA, add(CFA_XSP16, literal(-14)))
        CFI (cfiCond19) VB load(1, XDATA, add(CFA_XSP16, literal(-13)))
        CFI (cfiCond19) V0 load(1, XDATA, add(CFA_XSP16, literal(-12)))
        CFI (cfiCond19) V1 load(1, XDATA, add(CFA_XSP16, literal(-11)))
        CFI (cfiCond19) V2 load(1, XDATA, add(CFA_XSP16, literal(-10)))
        CFI (cfiCond19) V3 load(1, XDATA, add(CFA_XSP16, literal(-9)))
        CFI (cfiCond19) V4 load(1, XDATA, add(CFA_XSP16, literal(-8)))
        CFI (cfiCond19) V5 load(1, XDATA, add(CFA_XSP16, literal(-7)))
        CFI (cfiCond19) R7 load(1, XDATA, add(CFA_XSP16, literal(-6)))
        CFI (cfiCond19) ?RET_LOW load(1, XDATA, add(CFA_XSP16, literal(-5)))
        CFI (cfiCond19) ?RET_HIGH load(1, XDATA, add(CFA_XSP16, literal(-4)))
        CFI (cfiCond19) ?BRET_EXT load(1, XDATA, add(CFA_XSP16, literal(-3)))
        CFI (cfiCond19) DPL0 load(1, XDATA, add(CFA_XSP16, literal(-2)))
        CFI (cfiCond19) DPH0 load(1, XDATA, add(CFA_XSP16, literal(-1)))
        CFI (cfiCond19) CFA_SP SP+0
        CFI (cfiCond19) CFA_XSP16 add(XSP16, 62)
        CFI Block cfiCond20 Using cfiCommon0
        CFI (cfiCond20) NoFunction
        CFI (cfiCond20) Conditional ??CrossCallReturnLabel_13
        CFI (cfiCond20) R6 load(1, XDATA, add(CFA_XSP16, literal(-14)))
        CFI (cfiCond20) VB load(1, XDATA, add(CFA_XSP16, literal(-13)))
        CFI (cfiCond20) V0 load(1, XDATA, add(CFA_XSP16, literal(-12)))
        CFI (cfiCond20) V1 load(1, XDATA, add(CFA_XSP16, literal(-11)))
        CFI (cfiCond20) V2 load(1, XDATA, add(CFA_XSP16, literal(-10)))
        CFI (cfiCond20) V3 load(1, XDATA, add(CFA_XSP16, literal(-9)))
        CFI (cfiCond20) V4 load(1, XDATA, add(CFA_XSP16, literal(-8)))
        CFI (cfiCond20) V5 load(1, XDATA, add(CFA_XSP16, literal(-7)))
        CFI (cfiCond20) R7 load(1, XDATA, add(CFA_XSP16, literal(-6)))
        CFI (cfiCond20) ?RET_LOW load(1, XDATA, add(CFA_XSP16, literal(-5)))
        CFI (cfiCond20) ?RET_HIGH load(1, XDATA, add(CFA_XSP16, literal(-4)))
        CFI (cfiCond20) ?BRET_EXT load(1, XDATA, add(CFA_XSP16, literal(-3)))
        CFI (cfiCond20) DPL0 load(1, XDATA, add(CFA_XSP16, literal(-2)))
        CFI (cfiCond20) DPH0 load(1, XDATA, add(CFA_XSP16, literal(-1)))
        CFI (cfiCond20) CFA_SP SP+0
        CFI (cfiCond20) CFA_XSP16 add(XSP16, 62)
        CFI Block cfiPicker21 Using cfiCommon1
        CFI (cfiPicker21) NoFunction
        CFI (cfiPicker21) Picker
        MOV     DPH,A
        MOV     A,R4
        MOVX    @DPTR,A
        INC     DPTR
        CLR     A
        MOVX    @DPTR,A
        MOV     A,R2
        ADD     A,#0x1
        INC     R2
        MOV     A,R3
        ADDC    A,#0x0
        MOV     R3,A
        CLR     C
        MOV     A,R2
        SUBB    A,#0x8
        MOV     A,R3
        SUBB    A,#0x0
        RET
        CFI EndBlock cfiCond18
        CFI EndBlock cfiCond19
        CFI EndBlock cfiCond20
        CFI EndBlock cfiPicker21

        RSEG BANKED_CODE:CODE:NOROOT(0)
//   73 void Dela_200ms()
Dela_200ms:
        CFI Block cfiBlock22 Using cfiCommon0
        CFI Function Dela_200ms
        CODE
//   74 {
        ; Saved register size: 0
        ; Auto size: 0
//   75 int i,j;
//   76      for(i=0;i<20;i++)
//   77      {
//   78      for(j=0;j<17740;j++);
//   79      }
//   80 }
        LJMP    ?BRET
        CFI EndBlock cfiBlock22

        RSEG BANKED_CODE:CODE:NOROOT(0)
//   81 void Twinkle()
Twinkle:
        CFI Block cfiBlock23 Using cfiCommon0
        CFI Function Twinkle
        CODE
//   82 {
        FUNCALL Twinkle, Sendcolor
        LOCFRAME ISTACK, 0, STACK
        LOCFRAME PSTACK, 0, STACK
        LOCFRAME XSTACK, 16, STACK
        LOCFRAME IOVERLAY, 0, STATIC
        LOCFRAME DOVERLAY, 0, STATIC
        ARGFRAME ISTACK, 0, STACK
        ARGFRAME PSTACK, 0, STACK
        ARGFRAME XSTACK, 16, STACK
        ARGFRAME IOVERLAY, 0, STATIC
        ARGFRAME DOVERLAY, 0, STATIC
        FUNCALL Twinkle, Dela_200ms
        LOCFRAME ISTACK, 0, STACK
        LOCFRAME PSTACK, 0, STACK
        LOCFRAME XSTACK, 14, STACK
        LOCFRAME IOVERLAY, 0, STATIC
        LOCFRAME DOVERLAY, 0, STATIC
        ARGFRAME ISTACK, 0, STACK
        ARGFRAME PSTACK, 0, STACK
        ARGFRAME XSTACK, 14, STACK
        ARGFRAME IOVERLAY, 0, STATIC
        ARGFRAME DOVERLAY, 0, STATIC
        FUNCALL Twinkle, Sendcolor
        LOCFRAME ISTACK, 0, STACK
        LOCFRAME PSTACK, 0, STACK
        LOCFRAME XSTACK, 16, STACK
        LOCFRAME IOVERLAY, 0, STATIC
        LOCFRAME DOVERLAY, 0, STATIC
        ARGFRAME ISTACK, 0, STACK
        ARGFRAME PSTACK, 0, STACK
        ARGFRAME XSTACK, 16, STACK
        ARGFRAME IOVERLAY, 0, STATIC
        ARGFRAME DOVERLAY, 0, STATIC
        FUNCALL Twinkle, Dela_200ms
        LOCFRAME ISTACK, 0, STACK
        LOCFRAME PSTACK, 0, STACK
        LOCFRAME XSTACK, 14, STACK
        LOCFRAME IOVERLAY, 0, STATIC
        LOCFRAME DOVERLAY, 0, STATIC
        ARGFRAME ISTACK, 0, STACK
        ARGFRAME PSTACK, 0, STACK
        ARGFRAME XSTACK, 14, STACK
        ARGFRAME IOVERLAY, 0, STATIC
        ARGFRAME DOVERLAY, 0, STATIC
        FUNCALL Twinkle, Sendcolor
        LOCFRAME ISTACK, 0, STACK
        LOCFRAME PSTACK, 0, STACK
        LOCFRAME XSTACK, 16, STACK
        LOCFRAME IOVERLAY, 0, STATIC
        LOCFRAME DOVERLAY, 0, STATIC
        ARGFRAME ISTACK, 0, STACK
        ARGFRAME PSTACK, 0, STACK
        ARGFRAME XSTACK, 16, STACK
        ARGFRAME IOVERLAY, 0, STATIC
        ARGFRAME DOVERLAY, 0, STATIC
        FUNCALL Twinkle, Dela_200ms
        LOCFRAME ISTACK, 0, STACK
        LOCFRAME PSTACK, 0, STACK
        LOCFRAME XSTACK, 14, STACK
        LOCFRAME IOVERLAY, 0, STATIC
        LOCFRAME DOVERLAY, 0, STATIC
        ARGFRAME ISTACK, 0, STACK
        ARGFRAME PSTACK, 0, STACK
        ARGFRAME XSTACK, 14, STACK
        ARGFRAME IOVERLAY, 0, STATIC
        ARGFRAME DOVERLAY, 0, STATIC
        FUNCALL Twinkle, Sendcolor
        LOCFRAME ISTACK, 0, STACK
        LOCFRAME PSTACK, 0, STACK
        LOCFRAME XSTACK, 16, STACK
        LOCFRAME IOVERLAY, 0, STATIC
        LOCFRAME DOVERLAY, 0, STATIC
        ARGFRAME ISTACK, 0, STACK
        ARGFRAME PSTACK, 0, STACK
        ARGFRAME XSTACK, 16, STACK
        ARGFRAME IOVERLAY, 0, STATIC
        ARGFRAME DOVERLAY, 0, STATIC
        FUNCALL Twinkle, Dela_200ms
        LOCFRAME ISTACK, 0, STACK
        LOCFRAME PSTACK, 0, STACK
        LOCFRAME XSTACK, 14, STACK
        LOCFRAME IOVERLAY, 0, STATIC
        LOCFRAME DOVERLAY, 0, STATIC
        ARGFRAME ISTACK, 0, STACK
        ARGFRAME PSTACK, 0, STACK
        ARGFRAME XSTACK, 14, STACK
        ARGFRAME IOVERLAY, 0, STATIC
        ARGFRAME DOVERLAY, 0, STATIC
        FUNCALL Twinkle, Sendcolor
        LOCFRAME ISTACK, 0, STACK
        LOCFRAME PSTACK, 0, STACK
        LOCFRAME XSTACK, 16, STACK
        LOCFRAME IOVERLAY, 0, STATIC
        LOCFRAME DOVERLAY, 0, STATIC
        ARGFRAME ISTACK, 0, STACK
        ARGFRAME PSTACK, 0, STACK
        ARGFRAME XSTACK, 16, STACK
        ARGFRAME IOVERLAY, 0, STATIC
        ARGFRAME DOVERLAY, 0, STATIC
        FUNCALL Twinkle, Dela_200ms
        LOCFRAME ISTACK, 0, STACK
        LOCFRAME PSTACK, 0, STACK
        LOCFRAME XSTACK, 14, STACK
        LOCFRAME IOVERLAY, 0, STATIC
        LOCFRAME DOVERLAY, 0, STATIC
        ARGFRAME ISTACK, 0, STACK
        ARGFRAME PSTACK, 0, STACK
        ARGFRAME XSTACK, 14, STACK
        ARGFRAME IOVERLAY, 0, STATIC
        ARGFRAME DOVERLAY, 0, STATIC
        FUNCALL Twinkle, Sendcolor
        LOCFRAME ISTACK, 0, STACK
        LOCFRAME PSTACK, 0, STACK
        LOCFRAME XSTACK, 16, STACK
        LOCFRAME IOVERLAY, 0, STATIC
        LOCFRAME DOVERLAY, 0, STATIC
        ARGFRAME ISTACK, 0, STACK
        ARGFRAME PSTACK, 0, STACK
        ARGFRAME XSTACK, 16, STACK
        ARGFRAME IOVERLAY, 0, STATIC
        ARGFRAME DOVERLAY, 0, STATIC
        FUNCALL Twinkle, Dela_200ms
        LOCFRAME ISTACK, 0, STACK
        LOCFRAME PSTACK, 0, STACK
        LOCFRAME XSTACK, 14, STACK
        LOCFRAME IOVERLAY, 0, STATIC
        LOCFRAME DOVERLAY, 0, STATIC
        ARGFRAME ISTACK, 0, STACK
        ARGFRAME PSTACK, 0, STACK
        ARGFRAME XSTACK, 14, STACK
        ARGFRAME IOVERLAY, 0, STATIC
        ARGFRAME DOVERLAY, 0, STATIC
        MOV     A,#-0xe
        LCALL   ?BANKED_ENTER_XDATA
        CFI DPH0 load(1, XDATA, add(CFA_XSP16, literal(-1)))
        CFI DPL0 load(1, XDATA, add(CFA_XSP16, literal(-2)))
        CFI ?BRET_EXT load(1, XDATA, add(CFA_XSP16, literal(-3)))
        CFI ?RET_HIGH load(1, XDATA, add(CFA_XSP16, literal(-4)))
        CFI ?RET_LOW load(1, XDATA, add(CFA_XSP16, literal(-5)))
        CFI R7 load(1, XDATA, add(CFA_XSP16, literal(-6)))
        CFI V5 load(1, XDATA, add(CFA_XSP16, literal(-7)))
        CFI V4 load(1, XDATA, add(CFA_XSP16, literal(-8)))
        CFI V3 load(1, XDATA, add(CFA_XSP16, literal(-9)))
        CFI V2 load(1, XDATA, add(CFA_XSP16, literal(-10)))
        CFI V1 load(1, XDATA, add(CFA_XSP16, literal(-11)))
        CFI V0 load(1, XDATA, add(CFA_XSP16, literal(-12)))
        CFI VB load(1, XDATA, add(CFA_XSP16, literal(-13)))
        CFI R6 load(1, XDATA, add(CFA_XSP16, literal(-14)))
        CFI CFA_SP SP+0
        CFI CFA_XSP16 add(XSP16, 14)
        ; Saved register size: 14
        ; Auto size: 0
//   83  int j=100,i=0,k=0,a=0;
        MOV     ?V0 + 0,#0x64
        MOV     ?V0 + 1,#0x0
//   84     while(j--){
??Twinkle_0:
        MOV     R0,?V0 + 0
        MOV     R1,?V0 + 1
        MOV     A,R0
        ADD     A,#-0x1
        MOV     ?V0 + 0,A
        MOV     A,R1
        ADDC    A,#-0x1
        MOV     ?V0 + 1,A
        MOV     A,R0
        ORL     A,R1
        JNZ     $+5
        LJMP    ??Twinkle_1 & 0xFFFF
//   85     for(i=0;i<25;i++) {Sendcolor(i*10,255-i*10,255);Dela_200ms();}
        MOV     ?V0 + 2,#0x0
        MOV     ?V0 + 3,#0x0
??Twinkle_2:
        MOV     A,?V0 + 2
        MOV     B,#0xa
        MUL     AB
        MOV     R2,A
        MOV     R0,B
        MOV     B,#0xa
        MOV     A,?V0 + 3
        MUL     AB
        ADD     A,R0
        MOV     R3,A
        ; Setup parameters for call to function Sendcolor
        MOV     ?V0 + 4,#-0x1
        MOV     ?V0 + 5,#0x0
        MOV     R0,#?V0 + 4
        LCALL   ?PUSH_XSTACK_I_TWO
        CFI CFA_XSP16 add(XSP16, 16)
        LCALL   ?Subroutine6 & 0xFFFF
??CrossCallReturnLabel_15:
        LCALL   ?DEALLOC_XSTACK8
        CFI CFA_XSP16 add(XSP16, 14)
        ; Setup parameters for call to function Dela_200ms
        LCALL   ?Subroutine5 & 0xFFFF
??CrossCallReturnLabel_6:
        JC      ??Twinkle_2
//   86     for(k=0;k<25;k++) {Sendcolor(255,k*10,i*10-k*10);Dela_200ms();}
        MOV     R6,#0x0
        MOV     R7,#0x0
??Twinkle_3:
        ; Setup parameters for call to function Sendcolor
        MOV     A,?V0 + 2
        CLR     C
        SUBB    A,R6
        MOV     ?V0 + 4,A
        MOV     A,?V0 + 3
        SUBB    A,R7
        MOV     ?V0 + 5,A
        MOV     A,?V0 + 4
        MOV     B,#0xa
        MUL     AB
        MOV     ?V0 + 4,A
        MOV     R0,B
        MOV     B,#0xa
        MOV     A,?V0 + 5
        MUL     AB
        ADD     A,R0
        MOV     ?V0 + 5,A
        MOV     R0,#?V0 + 4
        LCALL   ?PUSH_XSTACK_I_TWO
        CFI CFA_XSP16 add(XSP16, 16)
        MOV     A,R6
        MOV     R4,A
        MOV     A,R7
        MOV     R5,A
        MOV     A,R4
        MOV     B,#0xa
        MUL     AB
        MOV     R4,A
        MOV     R0,B
        MOV     B,#0xa
        MOV     A,R5
        MUL     AB
        ADD     A,R0
        MOV     R5,A
        MOV     R2,#-0x1
        MOV     R3,#0x0
        LCALL   ??Subroutine10_0 & 0xFFFF
??CrossCallReturnLabel_17:
        LCALL   ?DEALLOC_XSTACK8
        CFI CFA_XSP16 add(XSP16, 14)
        ; Setup parameters for call to function Dela_200ms
        LCALL   ?Subroutine2 & 0xFFFF
??CrossCallReturnLabel_0:
        JC      ??Twinkle_3
//   87     for(a=0;a<25;a++) {Sendcolor(255-a*10,255,a*10);Dela_200ms();}
        MOV     ?V0 + 2,#0x0
        MOV     ?V0 + 3,#0x0
??Twinkle_4:
        MOV     ?V0 + 4,?V0 + 2
        MOV     ?V0 + 5,?V0 + 3
        MOV     A,?V0 + 4
        MOV     B,#0xa
        MUL     AB
        MOV     ?V0 + 4,A
        MOV     R0,B
        MOV     B,#0xa
        MOV     A,?V0 + 5
        MUL     AB
        ADD     A,R0
        MOV     ?V0 + 5,A
        ; Setup parameters for call to function Sendcolor
        MOV     R0,#?V0 + 4
        LCALL   ?PUSH_XSTACK_I_TWO
        CFI CFA_XSP16 add(XSP16, 16)
        MOV     R4,#-0x1
        MOV     R5,#0x0
        MOV     A,R4
        CLR     C
        SUBB    A,?V0 + 4
        MOV     R2,A
        CLR     A
        SUBB    A,?V0 + 5
        MOV     R3,A
        LCALL   ??Subroutine10_0 & 0xFFFF
??CrossCallReturnLabel_18:
        LCALL   ?DEALLOC_XSTACK8
        CFI CFA_XSP16 add(XSP16, 14)
        ; Setup parameters for call to function Dela_200ms
        LCALL   ?Subroutine5 & 0xFFFF
??CrossCallReturnLabel_7:
        JC      ??Twinkle_4
//   88     for(k=0;k<25;k++) {Sendcolor(k*10,255-k*10,255);Dela_200ms();}
        MOV     R6,#0x0
        MOV     R7,#0x0
??Twinkle_5:
        MOV     A,R6
        MOV     R2,A
        MOV     A,R7
        MOV     R3,A
        MOV     A,R2
        MOV     B,#0xa
        MUL     AB
        MOV     R2,A
        MOV     R0,B
        MOV     B,#0xa
        MOV     A,R3
        MUL     AB
        ADD     A,R0
        MOV     R3,A
        ; Setup parameters for call to function Sendcolor
        MOV     ?V0 + 2,#-0x1
        MOV     ?V0 + 3,#0x0
        MOV     R0,#?V0 + 2
        LCALL   ?PUSH_XSTACK_I_TWO
        CFI CFA_XSP16 add(XSP16, 16)
        LCALL   ?Subroutine6 & 0xFFFF
??CrossCallReturnLabel_16:
        LCALL   ?DEALLOC_XSTACK8
        CFI CFA_XSP16 add(XSP16, 14)
        ; Setup parameters for call to function Dela_200ms
        LCALL   ?Subroutine2 & 0xFFFF
??CrossCallReturnLabel_1:
        JC      ??Twinkle_5
//   89     for(k=0;k<25;k++) {Sendcolor(255,k*10,255-k*10);Dela_200ms();}
        MOV     R6,#0x0
        MOV     R7,#0x0
??Twinkle_6:
        MOV     A,R6
        MOV     R4,A
        MOV     A,R7
        MOV     R5,A
        MOV     A,R4
        MOV     B,#0xa
        MUL     AB
        MOV     R4,A
        MOV     R0,B
        MOV     B,#0xa
        MOV     A,R5
        MUL     AB
        ADD     A,R0
        MOV     R5,A
        ; Setup parameters for call to function Sendcolor
        MOV     A,#-0x1
        CLR     C
        SUBB    A,R4
        MOV     ?V0 + 2,A
        CLR     A
        SUBB    A,R5
        MOV     ?V0 + 3,A
        MOV     R0,#?V0 + 2
        LCALL   ?PUSH_XSTACK_I_TWO
        CFI CFA_XSP16 add(XSP16, 16)
        MOV     R2,#-0x1
        MOV     R3,#0x0
        LCALL   ??Subroutine10_0 & 0xFFFF
??CrossCallReturnLabel_19:
        LCALL   ?DEALLOC_XSTACK8
        CFI CFA_XSP16 add(XSP16, 14)
        ; Setup parameters for call to function Dela_200ms
        LCALL   ?Subroutine2 & 0xFFFF
??CrossCallReturnLabel_2:
        JC      ??Twinkle_6
//   90     for(k=0;k<25;k++) {Sendcolor(255-k*10,255,k*10);Dela_200ms();}
        MOV     R6,#0x0
        MOV     R7,#0x0
??Twinkle_7:
        MOV     ?V0 + 2,R6
        MOV     ?V0 + 3,R7
        MOV     A,?V0 + 2
        MOV     B,#0xa
        MUL     AB
        MOV     ?V0 + 2,A
        MOV     R0,B
        MOV     B,#0xa
        MOV     A,?V0 + 3
        MUL     AB
        ADD     A,R0
        MOV     ?V0 + 3,A
        ; Setup parameters for call to function Sendcolor
        MOV     R0,#?V0 + 2
        LCALL   ?PUSH_XSTACK_I_TWO
        CFI CFA_XSP16 add(XSP16, 16)
        MOV     R4,#-0x1
        MOV     R5,#0x0
        MOV     A,R4
        CLR     C
        SUBB    A,?V0 + 2
        MOV     R2,A
        CLR     A
        SUBB    A,?V0 + 3
        MOV     R3,A
        LCALL   ??Subroutine10_0 & 0xFFFF
??CrossCallReturnLabel_20:
        LCALL   ?DEALLOC_XSTACK8
        CFI CFA_XSP16 add(XSP16, 14)
        ; Setup parameters for call to function Dela_200ms
        LCALL   ?Subroutine2 & 0xFFFF
//   91     
//   92     }}
??CrossCallReturnLabel_3:
        JC      $+5
        LJMP    ??Twinkle_0 & 0xFFFF
        SJMP    ??Twinkle_7
??Twinkle_1:
        LJMP    ?Subroutine1 & 0xFFFF
        CFI EndBlock cfiBlock23

        RSEG BANKED_CODE:CODE:NOROOT(0)
?Subroutine6:
        CFI Block cfiCond24 Using cfiCommon0
        CFI NoFunction
        CFI Conditional ??CrossCallReturnLabel_15
        CFI R6 load(1, XDATA, add(CFA_XSP16, literal(-14)))
        CFI VB load(1, XDATA, add(CFA_XSP16, literal(-13)))
        CFI V0 load(1, XDATA, add(CFA_XSP16, literal(-12)))
        CFI V1 load(1, XDATA, add(CFA_XSP16, literal(-11)))
        CFI V2 load(1, XDATA, add(CFA_XSP16, literal(-10)))
        CFI V3 load(1, XDATA, add(CFA_XSP16, literal(-9)))
        CFI V4 load(1, XDATA, add(CFA_XSP16, literal(-8)))
        CFI V5 load(1, XDATA, add(CFA_XSP16, literal(-7)))
        CFI R7 load(1, XDATA, add(CFA_XSP16, literal(-6)))
        CFI ?RET_LOW load(1, XDATA, add(CFA_XSP16, literal(-5)))
        CFI ?RET_HIGH load(1, XDATA, add(CFA_XSP16, literal(-4)))
        CFI ?BRET_EXT load(1, XDATA, add(CFA_XSP16, literal(-3)))
        CFI DPL0 load(1, XDATA, add(CFA_XSP16, literal(-2)))
        CFI DPH0 load(1, XDATA, add(CFA_XSP16, literal(-1)))
        CFI CFA_SP SP+0
        CFI CFA_XSP16 add(XSP16, 16)
        CFI Block cfiCond25 Using cfiCommon0
        CFI (cfiCond25) NoFunction
        CFI (cfiCond25) Conditional ??CrossCallReturnLabel_16
        CFI (cfiCond25) R6 load(1, XDATA, add(CFA_XSP16, literal(-14)))
        CFI (cfiCond25) VB load(1, XDATA, add(CFA_XSP16, literal(-13)))
        CFI (cfiCond25) V0 load(1, XDATA, add(CFA_XSP16, literal(-12)))
        CFI (cfiCond25) V1 load(1, XDATA, add(CFA_XSP16, literal(-11)))
        CFI (cfiCond25) V2 load(1, XDATA, add(CFA_XSP16, literal(-10)))
        CFI (cfiCond25) V3 load(1, XDATA, add(CFA_XSP16, literal(-9)))
        CFI (cfiCond25) V4 load(1, XDATA, add(CFA_XSP16, literal(-8)))
        CFI (cfiCond25) V5 load(1, XDATA, add(CFA_XSP16, literal(-7)))
        CFI (cfiCond25) R7 load(1, XDATA, add(CFA_XSP16, literal(-6)))
        CFI (cfiCond25) ?RET_LOW load(1, XDATA, add(CFA_XSP16, literal(-5)))
        CFI (cfiCond25) ?RET_HIGH load(1, XDATA, add(CFA_XSP16, literal(-4)))
        CFI (cfiCond25) ?BRET_EXT load(1, XDATA, add(CFA_XSP16, literal(-3)))
        CFI (cfiCond25) DPL0 load(1, XDATA, add(CFA_XSP16, literal(-2)))
        CFI (cfiCond25) DPH0 load(1, XDATA, add(CFA_XSP16, literal(-1)))
        CFI (cfiCond25) CFA_SP SP+0
        CFI (cfiCond25) CFA_XSP16 add(XSP16, 16)
        CFI Block cfiPicker26 Using cfiCommon1
        CFI (cfiPicker26) NoFunction
        CFI (cfiPicker26) Picker
        MOV     A,#-0x1
        CLR     C
        SUBB    A,R2
        MOV     R4,A
        CLR     A
        SUBB    A,R3
        MOV     R5,A
        CFI EndBlock cfiCond24
        CFI EndBlock cfiCond25
        CFI EndBlock cfiPicker26
        REQUIRE ??Subroutine10_0
        ; // Fall through to label ??Subroutine10_0

        RSEG BANKED_CODE:CODE:NOROOT(0)
??Subroutine10_0:
        CFI Block cfiCond27 Using cfiCommon0
        CFI NoFunction
        CFI Conditional ??CrossCallReturnLabel_17
        CFI R6 load(1, XDATA, add(CFA_XSP16, literal(-14)))
        CFI VB load(1, XDATA, add(CFA_XSP16, literal(-13)))
        CFI V0 load(1, XDATA, add(CFA_XSP16, literal(-12)))
        CFI V1 load(1, XDATA, add(CFA_XSP16, literal(-11)))
        CFI V2 load(1, XDATA, add(CFA_XSP16, literal(-10)))
        CFI V3 load(1, XDATA, add(CFA_XSP16, literal(-9)))
        CFI V4 load(1, XDATA, add(CFA_XSP16, literal(-8)))
        CFI V5 load(1, XDATA, add(CFA_XSP16, literal(-7)))
        CFI R7 load(1, XDATA, add(CFA_XSP16, literal(-6)))
        CFI ?RET_LOW load(1, XDATA, add(CFA_XSP16, literal(-5)))
        CFI ?RET_HIGH load(1, XDATA, add(CFA_XSP16, literal(-4)))
        CFI ?BRET_EXT load(1, XDATA, add(CFA_XSP16, literal(-3)))
        CFI DPL0 load(1, XDATA, add(CFA_XSP16, literal(-2)))
        CFI DPH0 load(1, XDATA, add(CFA_XSP16, literal(-1)))
        CFI CFA_SP SP+0
        CFI CFA_XSP16 add(XSP16, 16)
        CFI Block cfiCond28 Using cfiCommon0
        CFI (cfiCond28) NoFunction
        CFI (cfiCond28) Conditional ??CrossCallReturnLabel_18
        CFI (cfiCond28) R6 load(1, XDATA, add(CFA_XSP16, literal(-14)))
        CFI (cfiCond28) VB load(1, XDATA, add(CFA_XSP16, literal(-13)))
        CFI (cfiCond28) V0 load(1, XDATA, add(CFA_XSP16, literal(-12)))
        CFI (cfiCond28) V1 load(1, XDATA, add(CFA_XSP16, literal(-11)))
        CFI (cfiCond28) V2 load(1, XDATA, add(CFA_XSP16, literal(-10)))
        CFI (cfiCond28) V3 load(1, XDATA, add(CFA_XSP16, literal(-9)))
        CFI (cfiCond28) V4 load(1, XDATA, add(CFA_XSP16, literal(-8)))
        CFI (cfiCond28) V5 load(1, XDATA, add(CFA_XSP16, literal(-7)))
        CFI (cfiCond28) R7 load(1, XDATA, add(CFA_XSP16, literal(-6)))
        CFI (cfiCond28) ?RET_LOW load(1, XDATA, add(CFA_XSP16, literal(-5)))
        CFI (cfiCond28) ?RET_HIGH load(1, XDATA, add(CFA_XSP16, literal(-4)))
        CFI (cfiCond28) ?BRET_EXT load(1, XDATA, add(CFA_XSP16, literal(-3)))
        CFI (cfiCond28) DPL0 load(1, XDATA, add(CFA_XSP16, literal(-2)))
        CFI (cfiCond28) DPH0 load(1, XDATA, add(CFA_XSP16, literal(-1)))
        CFI (cfiCond28) CFA_SP SP+0
        CFI (cfiCond28) CFA_XSP16 add(XSP16, 16)
        CFI Block cfiCond29 Using cfiCommon0
        CFI (cfiCond29) NoFunction
        CFI (cfiCond29) Conditional ??CrossCallReturnLabel_19
        CFI (cfiCond29) R6 load(1, XDATA, add(CFA_XSP16, literal(-14)))
        CFI (cfiCond29) VB load(1, XDATA, add(CFA_XSP16, literal(-13)))
        CFI (cfiCond29) V0 load(1, XDATA, add(CFA_XSP16, literal(-12)))
        CFI (cfiCond29) V1 load(1, XDATA, add(CFA_XSP16, literal(-11)))
        CFI (cfiCond29) V2 load(1, XDATA, add(CFA_XSP16, literal(-10)))
        CFI (cfiCond29) V3 load(1, XDATA, add(CFA_XSP16, literal(-9)))
        CFI (cfiCond29) V4 load(1, XDATA, add(CFA_XSP16, literal(-8)))
        CFI (cfiCond29) V5 load(1, XDATA, add(CFA_XSP16, literal(-7)))
        CFI (cfiCond29) R7 load(1, XDATA, add(CFA_XSP16, literal(-6)))
        CFI (cfiCond29) ?RET_LOW load(1, XDATA, add(CFA_XSP16, literal(-5)))
        CFI (cfiCond29) ?RET_HIGH load(1, XDATA, add(CFA_XSP16, literal(-4)))
        CFI (cfiCond29) ?BRET_EXT load(1, XDATA, add(CFA_XSP16, literal(-3)))
        CFI (cfiCond29) DPL0 load(1, XDATA, add(CFA_XSP16, literal(-2)))
        CFI (cfiCond29) DPH0 load(1, XDATA, add(CFA_XSP16, literal(-1)))
        CFI (cfiCond29) CFA_SP SP+0
        CFI (cfiCond29) CFA_XSP16 add(XSP16, 16)
        CFI Block cfiCond30 Using cfiCommon0
        CFI (cfiCond30) NoFunction
        CFI (cfiCond30) Conditional ??CrossCallReturnLabel_20
        CFI (cfiCond30) R6 load(1, XDATA, add(CFA_XSP16, literal(-14)))
        CFI (cfiCond30) VB load(1, XDATA, add(CFA_XSP16, literal(-13)))
        CFI (cfiCond30) V0 load(1, XDATA, add(CFA_XSP16, literal(-12)))
        CFI (cfiCond30) V1 load(1, XDATA, add(CFA_XSP16, literal(-11)))
        CFI (cfiCond30) V2 load(1, XDATA, add(CFA_XSP16, literal(-10)))
        CFI (cfiCond30) V3 load(1, XDATA, add(CFA_XSP16, literal(-9)))
        CFI (cfiCond30) V4 load(1, XDATA, add(CFA_XSP16, literal(-8)))
        CFI (cfiCond30) V5 load(1, XDATA, add(CFA_XSP16, literal(-7)))
        CFI (cfiCond30) R7 load(1, XDATA, add(CFA_XSP16, literal(-6)))
        CFI (cfiCond30) ?RET_LOW load(1, XDATA, add(CFA_XSP16, literal(-5)))
        CFI (cfiCond30) ?RET_HIGH load(1, XDATA, add(CFA_XSP16, literal(-4)))
        CFI (cfiCond30) ?BRET_EXT load(1, XDATA, add(CFA_XSP16, literal(-3)))
        CFI (cfiCond30) DPL0 load(1, XDATA, add(CFA_XSP16, literal(-2)))
        CFI (cfiCond30) DPH0 load(1, XDATA, add(CFA_XSP16, literal(-1)))
        CFI (cfiCond30) CFA_SP SP+0
        CFI (cfiCond30) CFA_XSP16 add(XSP16, 16)
        CFI Block cfiCond31 Using cfiCommon0
        CFI (cfiCond31) NoFunction
        CFI (cfiCond31) Conditional ??CrossCallReturnLabel_15
        CFI (cfiCond31) R6 load(1, XDATA, add(CFA_XSP16, literal(-14)))
        CFI (cfiCond31) VB load(1, XDATA, add(CFA_XSP16, literal(-13)))
        CFI (cfiCond31) V0 load(1, XDATA, add(CFA_XSP16, literal(-12)))
        CFI (cfiCond31) V1 load(1, XDATA, add(CFA_XSP16, literal(-11)))
        CFI (cfiCond31) V2 load(1, XDATA, add(CFA_XSP16, literal(-10)))
        CFI (cfiCond31) V3 load(1, XDATA, add(CFA_XSP16, literal(-9)))
        CFI (cfiCond31) V4 load(1, XDATA, add(CFA_XSP16, literal(-8)))
        CFI (cfiCond31) V5 load(1, XDATA, add(CFA_XSP16, literal(-7)))
        CFI (cfiCond31) R7 load(1, XDATA, add(CFA_XSP16, literal(-6)))
        CFI (cfiCond31) ?RET_LOW load(1, XDATA, add(CFA_XSP16, literal(-5)))
        CFI (cfiCond31) ?RET_HIGH load(1, XDATA, add(CFA_XSP16, literal(-4)))
        CFI (cfiCond31) ?BRET_EXT load(1, XDATA, add(CFA_XSP16, literal(-3)))
        CFI (cfiCond31) DPL0 load(1, XDATA, add(CFA_XSP16, literal(-2)))
        CFI (cfiCond31) DPH0 load(1, XDATA, add(CFA_XSP16, literal(-1)))
        CFI (cfiCond31) CFA_SP SP+0
        CFI (cfiCond31) CFA_XSP16 add(XSP16, 16)
        CFI Block cfiCond32 Using cfiCommon0
        CFI (cfiCond32) NoFunction
        CFI (cfiCond32) Conditional ??CrossCallReturnLabel_16
        CFI (cfiCond32) R6 load(1, XDATA, add(CFA_XSP16, literal(-14)))
        CFI (cfiCond32) VB load(1, XDATA, add(CFA_XSP16, literal(-13)))
        CFI (cfiCond32) V0 load(1, XDATA, add(CFA_XSP16, literal(-12)))
        CFI (cfiCond32) V1 load(1, XDATA, add(CFA_XSP16, literal(-11)))
        CFI (cfiCond32) V2 load(1, XDATA, add(CFA_XSP16, literal(-10)))
        CFI (cfiCond32) V3 load(1, XDATA, add(CFA_XSP16, literal(-9)))
        CFI (cfiCond32) V4 load(1, XDATA, add(CFA_XSP16, literal(-8)))
        CFI (cfiCond32) V5 load(1, XDATA, add(CFA_XSP16, literal(-7)))
        CFI (cfiCond32) R7 load(1, XDATA, add(CFA_XSP16, literal(-6)))
        CFI (cfiCond32) ?RET_LOW load(1, XDATA, add(CFA_XSP16, literal(-5)))
        CFI (cfiCond32) ?RET_HIGH load(1, XDATA, add(CFA_XSP16, literal(-4)))
        CFI (cfiCond32) ?BRET_EXT load(1, XDATA, add(CFA_XSP16, literal(-3)))
        CFI (cfiCond32) DPL0 load(1, XDATA, add(CFA_XSP16, literal(-2)))
        CFI (cfiCond32) DPH0 load(1, XDATA, add(CFA_XSP16, literal(-1)))
        CFI (cfiCond32) CFA_SP SP+0
        CFI (cfiCond32) CFA_XSP16 add(XSP16, 16)
        CFI Block cfiPicker33 Using cfiCommon1
        CFI (cfiPicker33) NoFunction
        CFI (cfiPicker33) Picker
        LCALL   ??Sendcolor?relay
        MOV     A,#0x2
        RET
        CFI EndBlock cfiCond27
        CFI EndBlock cfiCond28
        CFI EndBlock cfiCond29
        CFI EndBlock cfiCond30
        CFI EndBlock cfiCond31
        CFI EndBlock cfiCond32
        CFI EndBlock cfiPicker33

        RSEG BANKED_CODE:CODE:NOROOT(0)
?Subroutine5:
        CFI Block cfiCond34 Using cfiCommon0
        CFI NoFunction
        CFI Conditional ??CrossCallReturnLabel_6
        CFI R6 load(1, XDATA, add(CFA_XSP16, literal(-14)))
        CFI VB load(1, XDATA, add(CFA_XSP16, literal(-13)))
        CFI V0 load(1, XDATA, add(CFA_XSP16, literal(-12)))
        CFI V1 load(1, XDATA, add(CFA_XSP16, literal(-11)))
        CFI V2 load(1, XDATA, add(CFA_XSP16, literal(-10)))
        CFI V3 load(1, XDATA, add(CFA_XSP16, literal(-9)))
        CFI V4 load(1, XDATA, add(CFA_XSP16, literal(-8)))
        CFI V5 load(1, XDATA, add(CFA_XSP16, literal(-7)))
        CFI R7 load(1, XDATA, add(CFA_XSP16, literal(-6)))
        CFI ?RET_LOW load(1, XDATA, add(CFA_XSP16, literal(-5)))
        CFI ?RET_HIGH load(1, XDATA, add(CFA_XSP16, literal(-4)))
        CFI ?BRET_EXT load(1, XDATA, add(CFA_XSP16, literal(-3)))
        CFI DPL0 load(1, XDATA, add(CFA_XSP16, literal(-2)))
        CFI DPH0 load(1, XDATA, add(CFA_XSP16, literal(-1)))
        CFI CFA_SP SP+0
        CFI CFA_XSP16 add(XSP16, 14)
        CFI Block cfiCond35 Using cfiCommon0
        CFI (cfiCond35) NoFunction
        CFI (cfiCond35) Conditional ??CrossCallReturnLabel_7
        CFI (cfiCond35) R6 load(1, XDATA, add(CFA_XSP16, literal(-14)))
        CFI (cfiCond35) VB load(1, XDATA, add(CFA_XSP16, literal(-13)))
        CFI (cfiCond35) V0 load(1, XDATA, add(CFA_XSP16, literal(-12)))
        CFI (cfiCond35) V1 load(1, XDATA, add(CFA_XSP16, literal(-11)))
        CFI (cfiCond35) V2 load(1, XDATA, add(CFA_XSP16, literal(-10)))
        CFI (cfiCond35) V3 load(1, XDATA, add(CFA_XSP16, literal(-9)))
        CFI (cfiCond35) V4 load(1, XDATA, add(CFA_XSP16, literal(-8)))
        CFI (cfiCond35) V5 load(1, XDATA, add(CFA_XSP16, literal(-7)))
        CFI (cfiCond35) R7 load(1, XDATA, add(CFA_XSP16, literal(-6)))
        CFI (cfiCond35) ?RET_LOW load(1, XDATA, add(CFA_XSP16, literal(-5)))
        CFI (cfiCond35) ?RET_HIGH load(1, XDATA, add(CFA_XSP16, literal(-4)))
        CFI (cfiCond35) ?BRET_EXT load(1, XDATA, add(CFA_XSP16, literal(-3)))
        CFI (cfiCond35) DPL0 load(1, XDATA, add(CFA_XSP16, literal(-2)))
        CFI (cfiCond35) DPH0 load(1, XDATA, add(CFA_XSP16, literal(-1)))
        CFI (cfiCond35) CFA_SP SP+0
        CFI (cfiCond35) CFA_XSP16 add(XSP16, 14)
        CFI Block cfiPicker36 Using cfiCommon1
        CFI (cfiPicker36) NoFunction
        CFI (cfiPicker36) Picker
        LCALL   ??Dela_200ms?relay
        MOV     A,?V0 + 2
        ADD     A,#0x1
        MOV     ?V0 + 2,A
        MOV     A,?V0 + 3
        ADDC    A,#0x0
        MOV     ?V0 + 3,A
        CLR     C
        MOV     A,?V0 + 2
        SUBB    A,#0x19
        MOV     A,?V0 + 3
        SUBB    A,#0x0
        MOV     C,0xD0 /* PSW */.2
        XRL     A,PSW
        RLC     A
        RET
        CFI EndBlock cfiCond34
        CFI EndBlock cfiCond35
        CFI EndBlock cfiPicker36

        RSEG BANKED_CODE:CODE:NOROOT(0)
?Subroutine2:
        CFI Block cfiCond37 Using cfiCommon0
        CFI NoFunction
        CFI Conditional ??CrossCallReturnLabel_0
        CFI R6 load(1, XDATA, add(CFA_XSP16, literal(-14)))
        CFI VB load(1, XDATA, add(CFA_XSP16, literal(-13)))
        CFI V0 load(1, XDATA, add(CFA_XSP16, literal(-12)))
        CFI V1 load(1, XDATA, add(CFA_XSP16, literal(-11)))
        CFI V2 load(1, XDATA, add(CFA_XSP16, literal(-10)))
        CFI V3 load(1, XDATA, add(CFA_XSP16, literal(-9)))
        CFI V4 load(1, XDATA, add(CFA_XSP16, literal(-8)))
        CFI V5 load(1, XDATA, add(CFA_XSP16, literal(-7)))
        CFI R7 load(1, XDATA, add(CFA_XSP16, literal(-6)))
        CFI ?RET_LOW load(1, XDATA, add(CFA_XSP16, literal(-5)))
        CFI ?RET_HIGH load(1, XDATA, add(CFA_XSP16, literal(-4)))
        CFI ?BRET_EXT load(1, XDATA, add(CFA_XSP16, literal(-3)))
        CFI DPL0 load(1, XDATA, add(CFA_XSP16, literal(-2)))
        CFI DPH0 load(1, XDATA, add(CFA_XSP16, literal(-1)))
        CFI CFA_SP SP+0
        CFI CFA_XSP16 add(XSP16, 14)
        CFI Block cfiCond38 Using cfiCommon0
        CFI (cfiCond38) NoFunction
        CFI (cfiCond38) Conditional ??CrossCallReturnLabel_1
        CFI (cfiCond38) R6 load(1, XDATA, add(CFA_XSP16, literal(-14)))
        CFI (cfiCond38) VB load(1, XDATA, add(CFA_XSP16, literal(-13)))
        CFI (cfiCond38) V0 load(1, XDATA, add(CFA_XSP16, literal(-12)))
        CFI (cfiCond38) V1 load(1, XDATA, add(CFA_XSP16, literal(-11)))
        CFI (cfiCond38) V2 load(1, XDATA, add(CFA_XSP16, literal(-10)))
        CFI (cfiCond38) V3 load(1, XDATA, add(CFA_XSP16, literal(-9)))
        CFI (cfiCond38) V4 load(1, XDATA, add(CFA_XSP16, literal(-8)))
        CFI (cfiCond38) V5 load(1, XDATA, add(CFA_XSP16, literal(-7)))
        CFI (cfiCond38) R7 load(1, XDATA, add(CFA_XSP16, literal(-6)))
        CFI (cfiCond38) ?RET_LOW load(1, XDATA, add(CFA_XSP16, literal(-5)))
        CFI (cfiCond38) ?RET_HIGH load(1, XDATA, add(CFA_XSP16, literal(-4)))
        CFI (cfiCond38) ?BRET_EXT load(1, XDATA, add(CFA_XSP16, literal(-3)))
        CFI (cfiCond38) DPL0 load(1, XDATA, add(CFA_XSP16, literal(-2)))
        CFI (cfiCond38) DPH0 load(1, XDATA, add(CFA_XSP16, literal(-1)))
        CFI (cfiCond38) CFA_SP SP+0
        CFI (cfiCond38) CFA_XSP16 add(XSP16, 14)
        CFI Block cfiCond39 Using cfiCommon0
        CFI (cfiCond39) NoFunction
        CFI (cfiCond39) Conditional ??CrossCallReturnLabel_2
        CFI (cfiCond39) R6 load(1, XDATA, add(CFA_XSP16, literal(-14)))
        CFI (cfiCond39) VB load(1, XDATA, add(CFA_XSP16, literal(-13)))
        CFI (cfiCond39) V0 load(1, XDATA, add(CFA_XSP16, literal(-12)))
        CFI (cfiCond39) V1 load(1, XDATA, add(CFA_XSP16, literal(-11)))
        CFI (cfiCond39) V2 load(1, XDATA, add(CFA_XSP16, literal(-10)))
        CFI (cfiCond39) V3 load(1, XDATA, add(CFA_XSP16, literal(-9)))
        CFI (cfiCond39) V4 load(1, XDATA, add(CFA_XSP16, literal(-8)))
        CFI (cfiCond39) V5 load(1, XDATA, add(CFA_XSP16, literal(-7)))
        CFI (cfiCond39) R7 load(1, XDATA, add(CFA_XSP16, literal(-6)))
        CFI (cfiCond39) ?RET_LOW load(1, XDATA, add(CFA_XSP16, literal(-5)))
        CFI (cfiCond39) ?RET_HIGH load(1, XDATA, add(CFA_XSP16, literal(-4)))
        CFI (cfiCond39) ?BRET_EXT load(1, XDATA, add(CFA_XSP16, literal(-3)))
        CFI (cfiCond39) DPL0 load(1, XDATA, add(CFA_XSP16, literal(-2)))
        CFI (cfiCond39) DPH0 load(1, XDATA, add(CFA_XSP16, literal(-1)))
        CFI (cfiCond39) CFA_SP SP+0
        CFI (cfiCond39) CFA_XSP16 add(XSP16, 14)
        CFI Block cfiCond40 Using cfiCommon0
        CFI (cfiCond40) NoFunction
        CFI (cfiCond40) Conditional ??CrossCallReturnLabel_3
        CFI (cfiCond40) R6 load(1, XDATA, add(CFA_XSP16, literal(-14)))
        CFI (cfiCond40) VB load(1, XDATA, add(CFA_XSP16, literal(-13)))
        CFI (cfiCond40) V0 load(1, XDATA, add(CFA_XSP16, literal(-12)))
        CFI (cfiCond40) V1 load(1, XDATA, add(CFA_XSP16, literal(-11)))
        CFI (cfiCond40) V2 load(1, XDATA, add(CFA_XSP16, literal(-10)))
        CFI (cfiCond40) V3 load(1, XDATA, add(CFA_XSP16, literal(-9)))
        CFI (cfiCond40) V4 load(1, XDATA, add(CFA_XSP16, literal(-8)))
        CFI (cfiCond40) V5 load(1, XDATA, add(CFA_XSP16, literal(-7)))
        CFI (cfiCond40) R7 load(1, XDATA, add(CFA_XSP16, literal(-6)))
        CFI (cfiCond40) ?RET_LOW load(1, XDATA, add(CFA_XSP16, literal(-5)))
        CFI (cfiCond40) ?RET_HIGH load(1, XDATA, add(CFA_XSP16, literal(-4)))
        CFI (cfiCond40) ?BRET_EXT load(1, XDATA, add(CFA_XSP16, literal(-3)))
        CFI (cfiCond40) DPL0 load(1, XDATA, add(CFA_XSP16, literal(-2)))
        CFI (cfiCond40) DPH0 load(1, XDATA, add(CFA_XSP16, literal(-1)))
        CFI (cfiCond40) CFA_SP SP+0
        CFI (cfiCond40) CFA_XSP16 add(XSP16, 14)
        CFI Block cfiPicker41 Using cfiCommon1
        CFI (cfiPicker41) NoFunction
        CFI (cfiPicker41) Picker
        LCALL   ??Dela_200ms?relay
        LCALL   ?Subroutine8 & 0xFFFF
??CrossCallReturnLabel_11:
        SUBB    A,#0x19
        MOV     A,R7
        SUBB    A,#0x0
        MOV     C,0xD0 /* PSW */.2
        XRL     A,PSW
        RLC     A
        RET
        CFI EndBlock cfiCond37
        CFI EndBlock cfiCond38
        CFI EndBlock cfiCond39
        CFI EndBlock cfiCond40
        CFI EndBlock cfiPicker41

        RSEG BANKED_CODE:CODE:NOROOT(0)
?Subroutine8:
        CFI Block cfiCond42 Using cfiCommon0
        CFI NoFunction
        CFI Conditional ??CrossCallReturnLabel_10
        CFI R6 load(1, XDATA, add(CFA_XSP16, literal(-14)))
        CFI VB load(1, XDATA, add(CFA_XSP16, literal(-13)))
        CFI V0 load(1, XDATA, add(CFA_XSP16, literal(-12)))
        CFI V1 load(1, XDATA, add(CFA_XSP16, literal(-11)))
        CFI V2 load(1, XDATA, add(CFA_XSP16, literal(-10)))
        CFI V3 load(1, XDATA, add(CFA_XSP16, literal(-9)))
        CFI V4 load(1, XDATA, add(CFA_XSP16, literal(-8)))
        CFI V5 load(1, XDATA, add(CFA_XSP16, literal(-7)))
        CFI R7 load(1, XDATA, add(CFA_XSP16, literal(-6)))
        CFI ?RET_LOW load(1, XDATA, add(CFA_XSP16, literal(-5)))
        CFI ?RET_HIGH load(1, XDATA, add(CFA_XSP16, literal(-4)))
        CFI ?BRET_EXT load(1, XDATA, add(CFA_XSP16, literal(-3)))
        CFI DPL0 load(1, XDATA, add(CFA_XSP16, literal(-2)))
        CFI DPH0 load(1, XDATA, add(CFA_XSP16, literal(-1)))
        CFI CFA_SP SP+0
        CFI CFA_XSP16 add(XSP16, 62)
        CFI Block cfiCond43 Using cfiCommon0
        CFI (cfiCond43) NoFunction
        CFI (cfiCond43) Conditional ??CrossCallReturnLabel_11, ??CrossCallReturnLabel_0
        CFI (cfiCond43) R6 load(1, XDATA, add(CFA_XSP16, literal(-14)))
        CFI (cfiCond43) VB load(1, XDATA, add(CFA_XSP16, literal(-13)))
        CFI (cfiCond43) V0 load(1, XDATA, add(CFA_XSP16, literal(-12)))
        CFI (cfiCond43) V1 load(1, XDATA, add(CFA_XSP16, literal(-11)))
        CFI (cfiCond43) V2 load(1, XDATA, add(CFA_XSP16, literal(-10)))
        CFI (cfiCond43) V3 load(1, XDATA, add(CFA_XSP16, literal(-9)))
        CFI (cfiCond43) V4 load(1, XDATA, add(CFA_XSP16, literal(-8)))
        CFI (cfiCond43) V5 load(1, XDATA, add(CFA_XSP16, literal(-7)))
        CFI (cfiCond43) R7 load(1, XDATA, add(CFA_XSP16, literal(-6)))
        CFI (cfiCond43) ?RET_LOW load(1, XDATA, add(CFA_XSP16, literal(-5)))
        CFI (cfiCond43) ?RET_HIGH load(1, XDATA, add(CFA_XSP16, literal(-4)))
        CFI (cfiCond43) ?BRET_EXT load(1, XDATA, add(CFA_XSP16, literal(-3)))
        CFI (cfiCond43) DPL0 load(1, XDATA, add(CFA_XSP16, literal(-2)))
        CFI (cfiCond43) DPH0 load(1, XDATA, add(CFA_XSP16, literal(-1)))
        CFI (cfiCond43) CFA_SP SP+0
        CFI (cfiCond43) CFA_XSP16 add(XSP16, 14)
        CFI Block cfiCond44 Using cfiCommon0
        CFI (cfiCond44) NoFunction
        CFI (cfiCond44) Conditional ??CrossCallReturnLabel_11, ??CrossCallReturnLabel_1
        CFI (cfiCond44) R6 load(1, XDATA, add(CFA_XSP16, literal(-14)))
        CFI (cfiCond44) VB load(1, XDATA, add(CFA_XSP16, literal(-13)))
        CFI (cfiCond44) V0 load(1, XDATA, add(CFA_XSP16, literal(-12)))
        CFI (cfiCond44) V1 load(1, XDATA, add(CFA_XSP16, literal(-11)))
        CFI (cfiCond44) V2 load(1, XDATA, add(CFA_XSP16, literal(-10)))
        CFI (cfiCond44) V3 load(1, XDATA, add(CFA_XSP16, literal(-9)))
        CFI (cfiCond44) V4 load(1, XDATA, add(CFA_XSP16, literal(-8)))
        CFI (cfiCond44) V5 load(1, XDATA, add(CFA_XSP16, literal(-7)))
        CFI (cfiCond44) R7 load(1, XDATA, add(CFA_XSP16, literal(-6)))
        CFI (cfiCond44) ?RET_LOW load(1, XDATA, add(CFA_XSP16, literal(-5)))
        CFI (cfiCond44) ?RET_HIGH load(1, XDATA, add(CFA_XSP16, literal(-4)))
        CFI (cfiCond44) ?BRET_EXT load(1, XDATA, add(CFA_XSP16, literal(-3)))
        CFI (cfiCond44) DPL0 load(1, XDATA, add(CFA_XSP16, literal(-2)))
        CFI (cfiCond44) DPH0 load(1, XDATA, add(CFA_XSP16, literal(-1)))
        CFI (cfiCond44) CFA_SP SP+0
        CFI (cfiCond44) CFA_XSP16 add(XSP16, 14)
        CFI Block cfiCond45 Using cfiCommon0
        CFI (cfiCond45) NoFunction
        CFI (cfiCond45) Conditional ??CrossCallReturnLabel_11, ??CrossCallReturnLabel_2
        CFI (cfiCond45) R6 load(1, XDATA, add(CFA_XSP16, literal(-14)))
        CFI (cfiCond45) VB load(1, XDATA, add(CFA_XSP16, literal(-13)))
        CFI (cfiCond45) V0 load(1, XDATA, add(CFA_XSP16, literal(-12)))
        CFI (cfiCond45) V1 load(1, XDATA, add(CFA_XSP16, literal(-11)))
        CFI (cfiCond45) V2 load(1, XDATA, add(CFA_XSP16, literal(-10)))
        CFI (cfiCond45) V3 load(1, XDATA, add(CFA_XSP16, literal(-9)))
        CFI (cfiCond45) V4 load(1, XDATA, add(CFA_XSP16, literal(-8)))
        CFI (cfiCond45) V5 load(1, XDATA, add(CFA_XSP16, literal(-7)))
        CFI (cfiCond45) R7 load(1, XDATA, add(CFA_XSP16, literal(-6)))
        CFI (cfiCond45) ?RET_LOW load(1, XDATA, add(CFA_XSP16, literal(-5)))
        CFI (cfiCond45) ?RET_HIGH load(1, XDATA, add(CFA_XSP16, literal(-4)))
        CFI (cfiCond45) ?BRET_EXT load(1, XDATA, add(CFA_XSP16, literal(-3)))
        CFI (cfiCond45) DPL0 load(1, XDATA, add(CFA_XSP16, literal(-2)))
        CFI (cfiCond45) DPH0 load(1, XDATA, add(CFA_XSP16, literal(-1)))
        CFI (cfiCond45) CFA_SP SP+0
        CFI (cfiCond45) CFA_XSP16 add(XSP16, 14)
        CFI Block cfiCond46 Using cfiCommon0
        CFI (cfiCond46) NoFunction
        CFI (cfiCond46) Conditional ??CrossCallReturnLabel_11, ??CrossCallReturnLabel_3
        CFI (cfiCond46) R6 load(1, XDATA, add(CFA_XSP16, literal(-14)))
        CFI (cfiCond46) VB load(1, XDATA, add(CFA_XSP16, literal(-13)))
        CFI (cfiCond46) V0 load(1, XDATA, add(CFA_XSP16, literal(-12)))
        CFI (cfiCond46) V1 load(1, XDATA, add(CFA_XSP16, literal(-11)))
        CFI (cfiCond46) V2 load(1, XDATA, add(CFA_XSP16, literal(-10)))
        CFI (cfiCond46) V3 load(1, XDATA, add(CFA_XSP16, literal(-9)))
        CFI (cfiCond46) V4 load(1, XDATA, add(CFA_XSP16, literal(-8)))
        CFI (cfiCond46) V5 load(1, XDATA, add(CFA_XSP16, literal(-7)))
        CFI (cfiCond46) R7 load(1, XDATA, add(CFA_XSP16, literal(-6)))
        CFI (cfiCond46) ?RET_LOW load(1, XDATA, add(CFA_XSP16, literal(-5)))
        CFI (cfiCond46) ?RET_HIGH load(1, XDATA, add(CFA_XSP16, literal(-4)))
        CFI (cfiCond46) ?BRET_EXT load(1, XDATA, add(CFA_XSP16, literal(-3)))
        CFI (cfiCond46) DPL0 load(1, XDATA, add(CFA_XSP16, literal(-2)))
        CFI (cfiCond46) DPH0 load(1, XDATA, add(CFA_XSP16, literal(-1)))
        CFI (cfiCond46) CFA_SP SP+0
        CFI (cfiCond46) CFA_XSP16 add(XSP16, 14)
        CFI Block cfiPicker47 Using cfiCommon1
        CFI (cfiPicker47) NoFunction
        CFI (cfiPicker47) Picker
        MOV     A,R6
        ADD     A,#0x1
        INC     R6
        MOV     A,R7
        ADDC    A,#0x0
        MOV     R7,A
        CLR     C
        MOV     A,R6
        RET
        CFI EndBlock cfiCond42
        CFI EndBlock cfiCond43
        CFI EndBlock cfiCond44
        CFI EndBlock cfiCond45
        CFI EndBlock cfiCond46
        CFI EndBlock cfiPicker47

        RSEG BANK_RELAYS:CODE:REORDER:NOROOT(0)
??IO_Init?relay:
        LCALL   ?BDISPATCH
        DATA
        DC24    IO_Init

        RSEG BANK_RELAYS:CODE:REORDER:NOROOT(0)
??delay?relay:
        LCALL   ?BDISPATCH
        DATA
        DC24    delay

        RSEG BANK_RELAYS:CODE:REORDER:NOROOT(0)
??T0?relay:
        LCALL   ?BDISPATCH
        DATA
        DC24    T0

        RSEG BANK_RELAYS:CODE:REORDER:NOROOT(0)
??T1?relay:
        LCALL   ?BDISPATCH
        DATA
        DC24    T1

        RSEG BANK_RELAYS:CODE:REORDER:NOROOT(0)
??REST?relay:
        LCALL   ?BDISPATCH
        DATA
        DC24    REST

        RSEG BANK_RELAYS:CODE:REORDER:NOROOT(0)
??Sendcolor?relay:
        LCALL   ?BDISPATCH
        DATA
        DC24    Sendcolor

        RSEG BANK_RELAYS:CODE:REORDER:NOROOT(0)
??Dela_200ms?relay:
        LCALL   ?BDISPATCH
        DATA
        DC24    Dela_200ms

        RSEG BANK_RELAYS:CODE:REORDER:NOROOT(0)
??Twinkle?relay:
        LCALL   ?BDISPATCH
        DATA
        DC24    Twinkle

        RSEG XDATA_ROM_C:CONST:REORDER:NOROOT(0)
        DATA8
`?<Constant {0}>`:
        DATA16
        DW 0
        DB 0, 0, 0, 0, 0, 0, 0, 0
        DB 0, 0, 0, 0, 0, 0, 0, 0
        DB 0, 0, 0, 0, 0, 0, 0, 0
        DB 0, 0, 0, 0, 0, 0, 0, 0
        DB 0, 0, 0, 0, 0, 0, 0, 0
        DB 0, 0, 0, 0, 0, 0

        END
// 
// 771 bytes in segment BANKED_CODE
//  48 bytes in segment BANK_RELAYS
//   3 bytes in segment SFR_AN
//  48 bytes in segment XDATA_ROM_C
// 
// 819 bytes of CODE  memory
//  48 bytes of CONST memory
//   0 bytes of DATA  memory (+ 3 bytes shared)
//
//Errors: none
//Warnings: none
