###############################################################################
#                                                                             #
# IAR C/C++ Compiler V8.10.1.40194/W32 for 8051         21/Aug/2015  17:02:07 #
# Copyright 2004-2011 IAR Systems AB.                                         #
#                                                                             #
#    Core               =  plain                                              #
#    Code model         =  banked                                             #
#    Data model         =  large                                              #
#    Calling convention =  xdata reentrant                                    #
#    Constant location  =  data_rom                                           #
#    Dptr setup         =  1,16                                               #
#    Source file        =  C:\Users\Administrator\Desktop\彩灯\源程序\Project #
#                          s\zstack\Samples\SampleApp\Source\SampleApp.c      #
#    Command line       =  -f C:\Users\Administrator\Desktop\彩灯\源程序\Proj #
#                          ects\zstack\Samples\SampleApp\CC2530DB\..\..\..\To #
#                          ols\CC2530DB\f8wCoord.cfg (-DCPU32MHZ              #
#                          -DROOT=__near_func -DMAC_CFG_APP_PENDING_QUEUE=TRU #
#                          E -DMAC_CFG_TX_DATA_MAX=5 -DMAC_CFG_TX_MAX=8       #
#                          -DMAC_CFG_RX_MAX=5 -DZDO_COORDINATOR -DRTR_NWK)    #
#                          -f C:\Users\Administrator\Desktop\彩灯\源程序\Proj #
#                          ects\zstack\Samples\SampleApp\CC2530DB\..\..\..\To #
#                          ols\CC2530DB\f8wConfig.cfg (-DZIGBEEPRO            #
#                          -DSECURE=0 -DZG_SECURE_DYNAMIC=0 -DREFLECTOR       #
#                          -DDEFAULT_CHANLIST=0x00000800;                     #
#                          -DZDAPP_CONFIG_PAN_ID=0xFF00                       #
#                          -DNWK_START_DELAY=100 -DEXTENDED_JOINING_RANDOM_MA #
#                          SK=0x007F -DBEACON_REQUEST_DELAY=100               #
#                          -DBEACON_REQ_DELAY_MASK=0x00FF                     #
#                          -DLINK_STATUS_JITTER_MASK=0x007F                   #
#                          -DROUTE_EXPIRY_TIME=30 -DAPSC_ACK_WAIT_DURATION_PO #
#                          LLED=3000 -DNWK_INDIRECT_MSG_TIMEOUT=7             #
#                          -DMAX_RREQ_ENTRIES=8 -DAPSC_MAX_FRAME_RETRIES=3    #
#                          -DNWK_MAX_DATA_RETRIES=2                           #
#                          -DMAX_POLL_FAILURE_RETRIES=2 -DMAX_BCAST=9         #
#                          -DAPS_MAX_GROUPS=16 -DMAX_RTG_ENTRIES=40           #
#                          -DNWK_MAX_BINDING_ENTRIES=4                        #
#                          -DMAX_BINDING_CLUSTER_IDS=4 "-DDEFAULT_KEY={0x01,  #
#                          0x03, 0x05, 0x07, 0x09, 0x0B, 0x0D, 0x0F, 0x00,    #
#                          0x02, 0x04, 0x06, 0x08, 0x0A, 0x0C, 0x0D}"         #
#                          -DMAC_MAX_FRAME_SIZE=116                           #
#                          -DZDNWKMGR_MIN_TRANSMISSIONS=20 "-DCONST=const     #
#                          __code" -DGENERIC=__generic                        #
#                          -DRFD_RCVC_ALWAYS_ON=FALSE -DPOLL_RATE=1000        #
#                          -DQUEUED_POLL_RATE=100 -DRESPONSE_POLL_RATE=100)   #
#                          -DREJOIN_POLL_RATE=440 C:\Users\Administrator\Desk #
#                          top\彩灯\源程序\Projects\zstack\Samples\SampleApp\ #
#                          Source\SampleApp.c -D ZTOOL_P1 -D xMT_TASK -D      #
#                          xMT_SYS_FUNC -D xMT_ZDO_FUNC -D                    #
#                          LCD_SUPPORTED=DEBUG -lC C:\Users\Administrator\Des #
#                          ktop\彩灯\源程序\Projects\zstack\Samples\SampleApp #
#                          \CC2530DB\CoordinatorEB\List\ -lA                  #
#                          C:\Users\Administrator\Desktop\彩灯\源程序\Project #
#                          s\zstack\Samples\SampleApp\CC2530DB\CoordinatorEB\ #
#                          List\ --diag_suppress Pe001,Pa010 -o               #
#                          C:\Users\Administrator\Desktop\彩灯\源程序\Project #
#                          s\zstack\Samples\SampleApp\CC2530DB\CoordinatorEB\ #
#                          Obj\ -e --no_code_motion --debug --core=plain      #
#                          --dptr=16,1 --data_model=large                     #
#                          --code_model=banked --calling_convention=xdata_ree #
#                          ntrant --place_constants=data_rom                  #
#                          --nr_virtual_regs 16 -I C:\Users\Administrator\Des #
#                          ktop\彩灯\源程序\Projects\zstack\Samples\SampleApp #
#                          \CC2530DB\ -I C:\Users\Administrator\Desktop\彩灯\ #
#                          源程序\Projects\zstack\Samples\SampleApp\CC2530DB\ #
#                          ..\Source\ -I C:\Users\Administrator\Desktop\彩灯\ #
#                          源程序\Projects\zstack\Samples\SampleApp\CC2530DB\ #
#                          ..\..\..\ZMain\TI2530DB\ -I                        #
#                          C:\Users\Administrator\Desktop\彩灯\源程序\Project #
#                          s\zstack\Samples\SampleApp\CC2530DB\..\..\..\..\.. #
#                          \Components\hal\include\ -I                        #
#                          C:\Users\Administrator\Desktop\彩灯\源程序\Project #
#                          s\zstack\Samples\SampleApp\CC2530DB\..\..\..\..\.. #
#                          \Components\hal\target\CC2530EB\ -I                #
#                          C:\Users\Administrator\Desktop\彩灯\源程序\Project #
#                          s\zstack\Samples\SampleApp\CC2530DB\..\..\..\..\.. #
#                          \Components\mac\include\ -I                        #
#                          C:\Users\Administrator\Desktop\彩灯\源程序\Project #
#                          s\zstack\Samples\SampleApp\CC2530DB\..\..\..\..\.. #
#                          \Components\mac\high_level\ -I                     #
#                          C:\Users\Administrator\Desktop\彩灯\源程序\Project #
#                          s\zstack\Samples\SampleApp\CC2530DB\..\..\..\..\.. #
#                          \Components\mac\low_level\srf04\ -I                #
#                          C:\Users\Administrator\Desktop\彩灯\源程序\Project #
#                          s\zstack\Samples\SampleApp\CC2530DB\..\..\..\..\.. #
#                          \Components\mac\low_level\srf04\single_chip\ -I    #
#                          C:\Users\Administrator\Desktop\彩灯\源程序\Project #
#                          s\zstack\Samples\SampleApp\CC2530DB\..\..\..\..\.. #
#                          \Components\mt\ -I C:\Users\Administrator\Desktop\ #
#                          彩灯\源程序\Projects\zstack\Samples\SampleApp\CC25 #
#                          30DB\..\..\..\..\..\Components\osal\include\ -I    #
#                          C:\Users\Administrator\Desktop\彩灯\源程序\Project #
#                          s\zstack\Samples\SampleApp\CC2530DB\..\..\..\..\.. #
#                          \Components\services\saddr\ -I                     #
#                          C:\Users\Administrator\Desktop\彩灯\源程序\Project #
#                          s\zstack\Samples\SampleApp\CC2530DB\..\..\..\..\.. #
#                          \Components\services\sdata\ -I                     #
#                          C:\Users\Administrator\Desktop\彩灯\源程序\Project #
#                          s\zstack\Samples\SampleApp\CC2530DB\..\..\..\..\.. #
#                          \Components\stack\af\ -I                           #
#                          C:\Users\Administrator\Desktop\彩灯\源程序\Project #
#                          s\zstack\Samples\SampleApp\CC2530DB\..\..\..\..\.. #
#                          \Components\stack\nwk\ -I                          #
#                          C:\Users\Administrator\Desktop\彩灯\源程序\Project #
#                          s\zstack\Samples\SampleApp\CC2530DB\..\..\..\..\.. #
#                          \Components\stack\sapi\ -I                         #
#                          C:\Users\Administrator\Desktop\彩灯\源程序\Project #
#                          s\zstack\Samples\SampleApp\CC2530DB\..\..\..\..\.. #
#                          \Components\stack\sec\ -I                          #
#                          C:\Users\Administrator\Desktop\彩灯\源程序\Project #
#                          s\zstack\Samples\SampleApp\CC2530DB\..\..\..\..\.. #
#                          \Components\stack\sys\ -I                          #
#                          C:\Users\Administrator\Desktop\彩灯\源程序\Project #
#                          s\zstack\Samples\SampleApp\CC2530DB\..\..\..\..\.. #
#                          \Components\stack\zdo\ -I                          #
#                          C:\Users\Administrator\Desktop\彩灯\源程序\Project #
#                          s\zstack\Samples\SampleApp\CC2530DB\..\..\..\..\.. #
#                          \Components\zmac\ -I C:\Users\Administrator\Deskto #
#                          p\彩灯\源程序\Projects\zstack\Samples\SampleApp\CC #
#                          2530DB\..\..\..\..\..\Components\zmac\f8w\ -Ohz    #
#                          --require_prototypes                               #
#    List file          =  C:\Users\Administrator\Desktop\彩灯\源程序\Project #
#                          s\zstack\Samples\SampleApp\CC2530DB\CoordinatorEB\ #
#                          List\SampleApp.lst                                 #
#    Object file        =  C:\Users\Administrator\Desktop\彩灯\源程序\Project #
#                          s\zstack\Samples\SampleApp\CC2530DB\CoordinatorEB\ #
#                          Obj\SampleApp.r51                                  #
#                                                                             #
#                                                                             #
###############################################################################

C:\Users\Administrator\Desktop\彩灯\源程序\Projects\zstack\Samples\SampleApp\Source\SampleApp.c
      1          /**************************************************************************************************
      2            Filename:       SampleApp.c
      3            Revised:        $Date: 2009-03-18 15:56:27 -0700 (Wed, 18 Mar 2009) $
      4            Revision:       $Revision: 19453 $
      5          
      6            Description:    Sample Application (no Profile).
      7          
      8          
      9            Copyright 2007 Texas Instruments Incorporated. All rights reserved.
     10          
     11            IMPORTANT: Your use of this Software is limited to those specific rights
     12            granted under the terms of a software license agreement between the user
     13            who downloaded the software, his/her employer (which must be your employer)
     14            and Texas Instruments Incorporated (the "License").  You may not use this
     15            Software unless you agree to abide by the terms of the License. The License
     16            limits your use, and you acknowledge, that the Software may not be modified,
     17            copied or distributed unless embedded on a Texas Instruments microcontroller
     18            or used solely and exclusively in conjunction with a Texas Instruments radio
     19            frequency transceiver, which is integrated into your product.  Other than for
     20            the foregoing purpose, you may not use, reproduce, copy, prepare derivative
     21            works of, modify, distribute, perform, display or sell this Software and/or
     22            its documentation for any purpose.
     23          
     24            YOU FURTHER ACKNOWLEDGE AND AGREE THAT THE SOFTWARE AND DOCUMENTATION ARE
     25            PROVIDED AS IS?WITHOUT WARRANTY OF ANY KIND, EITHER EXPRESS OR IMPLIED,
     26            INCLUDING WITHOUT LIMITATION, ANY WARRANTY OF MERCHANTABILITY, TITLE,
     27            NON-INFRINGEMENT AND FITNESS FOR A PARTICULAR PURPOSE. IN NO EVENT SHALL
     28            TEXAS INSTRUMENTS OR ITS LICENSORS BE LIABLE OR OBLIGATED UNDER CONTRACT,
     29            NEGLIGENCE, STRICT LIABILITY, CONTRIBUTION, BREACH OF WARRANTY, OR OTHER
     30            LEGAL EQUITABLE THEORY ANY DIRECT OR INDIRECT DAMAGES OR EXPENSES
     31            INCLUDING BUT NOT LIMITED TO ANY INCIDENTAL, SPECIAL, INDIRECT, PUNITIVE
     32            OR CONSEQUENTIAL DAMAGES, LOST PROFITS OR LOST DATA, COST OF PROCUREMENT
     33            OF SUBSTITUTE GOODS, TECHNOLOGY, SERVICES, OR ANY CLAIMS BY THIRD PARTIES
     34            (INCLUDING BUT NOT LIMITED TO ANY DEFENSE THEREOF), OR OTHER SIMILAR COSTS.
     35          
     36            Should you have any questions regarding your right to use this Software,
     37            contact Texas Instruments Incorporated at www.TI.com.
     38          **************************************************************************************************/
     39          
     40          /*********************************************************************
     41            This application isn't intended to do anything useful, it is
     42            intended to be a simple example of an application's structure.
     43          
     44            This application sends it's messages either as broadcast or
     45            broadcast filtered group messages.  The other (more normal)
     46            message addressing is unicast.  Most of the other sample
     47            applications are written to support the unicast message model.
     48          
     49            Key control:
     50              SW1:  Sends a flash command to all devices in Group 1.
     51              SW2:  Adds/Removes (toggles) this device in and out
     52                    of Group 1.  This will enable and disable the
     53                    reception of the flash command.
     54          *********************************************************************/
     55          
     56          /*********************************************************************
     57           * INCLUDES
     58           */
     59          #include "OSAL.h"
     60          #include "ZGlobals.h"
     61          #include "AF.h"
     62          #include "aps_groups.h"
     63          #include "ZDApp.h"
     64          
     65          #include "SampleApp.h"
     66          #include "SampleAppHw.h"
     67          
     68          #include "OnBoard.h"
     69          
     70          /* HAL */
     71          #include "hal_lcd.h"
     72          #include "hal_led.h"
     73          #include "hal_key.h"
     74          
     75          #include  "MT_UART.h" //此处用于串口
     76          #include  "MT.h"
     77          #include  "NLMEDE.h"
     78          
     79          /*********************************************************************
     80           * MACROS
     81           */
     82          
     83          /*********************************************************************
     84           * CONSTANTS
     85           */
     86          
     87          /*********************************************************************
     88           * TYPEDEFS
     89           */
     90          
     91          /*********************************************************************
     92           * GLOBAL VARIABLES
     93           */
     94          
     95          // This list should be filled with Application specific Cluster IDs.

   \                                 In  segment XDATA_ROM_C, align 1
     96          const cId_t SampleApp_ClusterList[SAMPLEAPP_MAX_CLUSTERS] =
   \                     SampleApp_ClusterList:
   \   000000   0100         DW 1
   \   000002   0200         DW 2
   \   000004   0000         DW 0
     97          {
     98            SAMPLEAPP_PERIODIC_CLUSTERID,
     99            SAMPLEAPP_FLASH_CLUSTERID
    100          };
    101          

   \                                 In  segment XDATA_ROM_C, align 1
    102          const SimpleDescriptionFormat_t SampleApp_SimpleDesc =
   \                     SampleApp_SimpleDesc:
   \   000000   14           DB 20
   \   000001   080F         DW 3848
   \   000003   0100         DW 1
   \   000005   00           DB 0
   \   000006   03           DB 3
   \   000007   ....         DW SampleApp_ClusterList
   \   000009   03           DB 3
   \   00000A   ....         DW SampleApp_ClusterList
    103          {
    104            SAMPLEAPP_ENDPOINT,              //  int Endpoint;
    105            SAMPLEAPP_PROFID,                //  uint16 AppProfId[2];
    106            SAMPLEAPP_DEVICEID,              //  uint16 AppDeviceId[2];
    107            SAMPLEAPP_DEVICE_VERSION,        //  int   AppDevVer:4;
    108            SAMPLEAPP_FLAGS,                 //  int   AppFlags:4;
    109            SAMPLEAPP_MAX_CLUSTERS,          //  uint8  AppNumInClusters;
    110            (cId_t *)SampleApp_ClusterList,  //  uint8 *pAppInClusterList;
    111            SAMPLEAPP_MAX_CLUSTERS,          //  uint8  AppNumInClusters;
    112            (cId_t *)SampleApp_ClusterList   //  uint8 *pAppInClusterList;
    113          };
    114          
    115          // This is the Endpoint/Interface description.  It is defined here, but
    116          // filled-in in SampleApp_Init().  Another way to go would be to fill
    117          // in the structure here and make it a "const" (in code space).  The
    118          // way it's defined in this sample app it is define in RAM.

   \                                 In  segment XDATA_Z, align 1, keep-with-next
    119          endPointDesc_t SampleApp_epDesc;
   \                     SampleApp_epDesc:
   \   000000                DS 6
   \   000006                REQUIRE __INIT_XDATA_Z
    120          
    121          /*********************************************************************
    122           * EXTERNAL VARIABLES
    123           */
    124          
    125          /*********************************************************************
    126           * EXTERNAL FUNCTIONS
    127           */
    128          
    129          /*********************************************************************
    130           * LOCAL VARIABLES
    131           */

   \                                 In  segment XDATA_Z, align 1, keep-with-next
    132          uint8 SampleApp_TaskID;   // Task ID for internal task/event processing
   \                     SampleApp_TaskID:
   \   000000                DS 1
   \   000001                REQUIRE __INIT_XDATA_Z
    133                                    // This variable will be received when
    134                                    // SampleApp_Init() is called.

   \                                 In  segment XDATA_Z, align 1, keep-with-next
    135          devStates_t SampleApp_NwkState;
   \                     SampleApp_NwkState:
   \   000000                DS 1
   \   000001                REQUIRE __INIT_XDATA_Z
    136          

   \                                 In  segment XDATA_Z, align 1, keep-with-next
    137          uint8 SampleApp_TransID;  // This is the unique message ID (counter)
   \                     SampleApp_TransID:
   \   000000                DS 1
   \   000001                REQUIRE __INIT_XDATA_Z
    138          

   \                                 In  segment XDATA_Z, align 1, keep-with-next
    139          afAddrType_t SampleApp_Periodic_DstAddr;
   \                     SampleApp_Periodic_DstAddr:
   \   000000                DS 12
   \   00000C                REQUIRE __INIT_XDATA_Z

   \                                 In  segment XDATA_Z, align 1, keep-with-next
    140          afAddrType_t SampleApp_Flash_DstAddr;
   \                     SampleApp_Flash_DstAddr:
   \   000000                DS 12
   \   00000C                REQUIRE __INIT_XDATA_Z
    141          

   \                                 In  segment XDATA_Z, align 1, keep-with-next
    142          aps_Group_t SampleApp_Group;
   \                     SampleApp_Group:
   \   000000                DS 18
   \   000012                REQUIRE __INIT_XDATA_Z
    143          

   \                                 In  segment XDATA_Z, align 1, keep-with-next
    144          uint8 SampleAppPeriodicCounter = 0;
   \                     SampleAppPeriodicCounter:
   \   000000                DS 1
   \   000001                REQUIRE __INIT_XDATA_Z

   \                                 In  segment XDATA_Z, align 1, keep-with-next
    145          uint8 SampleAppFlashCounter = 0;
   \                     SampleAppFlashCounter:
   \   000000                DS 1
   \   000001                REQUIRE __INIT_XDATA_Z
    146          
    147          /*********************************************************************
    148           * LOCAL FUNCTIONS
    149           */
    150          void SampleApp_HandleKeys( uint8 shift, uint8 keys );
    151          void SampleApp_MessageMSGCB( afIncomingMSGPacket_t *pckt );
    152          void SampleApp_SendPeriodicMessage( void );
    153          void SampleApp_SendFlashMessage( uint16 flashTime );
    154          void SampleApp_SerialCMD(mtOSALSerialData_t *cmdMsg);
    155          
    156          
    157          /*********************************************************************
    158           * NETWORK LAYER CALLBACKS
    159           */
    160          
    161          /*********************************************************************
    162           * PUBLIC FUNCTIONS
    163           */
    164          
    165          /*********************************************************************
    166           * @fn      SampleApp_Init
    167           *
    168           * @brief   Initialization function for the Generic App Task.
    169           *          This is called during initialization and should contain
    170           *          any application specific initialization (ie. hardware
    171           *          initialization/setup, table initialization, power up
    172           *          notificaiton ... ).
    173           *
    174           * @param   task_id - the ID assigned by OSAL.  This ID should be
    175           *                    used to send messages and set timers.
    176           *
    177           * @return  none
    178           */

   \                                 In  segment BANKED_CODE, align 1, keep-with-next
    179          void SampleApp_Init( uint8 task_id )
   \                     SampleApp_Init:
    180          {
   \   000000   74F5         MOV     A,#-0xb
   \   000002   12....       LCALL   ?BANKED_ENTER_XDATA
   \   000005                ; Saved register size: 11
   \   000005                ; Auto size: 0
   \   000005   E9           MOV     A,R1
   \   000006   FE           MOV     R6,A
    181            SampleApp_TaskID = task_id;
   \   000007   90....       MOV     DPTR,#SampleApp_TaskID
   \   00000A   F0           MOVX    @DPTR,A
    182            SampleApp_NwkState = DEV_INIT;
   \   00000B   90....       MOV     DPTR,#SampleApp_NwkState
   \   00000E   7401         MOV     A,#0x1
   \   000010   F0           MOVX    @DPTR,A
    183            SampleApp_TransID = 0;
   \   000011   90....       MOV     DPTR,#SampleApp_TransID
   \   000014   E4           CLR     A
   \   000015   F0           MOVX    @DPTR,A
    184            
    185            MT_UartInit();//串口初始化
   \   000016                ; Setup parameters for call to function MT_UartInit
   \   000016   12....       LCALL   ??MT_UartInit?relay
    186            MT_UartRegisterTaskID(task_id);//登记任务号
   \   000019                ; Setup parameters for call to function MT_UartRegisterTaskID
   \   000019   EE           MOV     A,R6
   \   00001A   F9           MOV     R1,A
   \   00001B   12....       LCALL   ??MT_UartRegisterTaskID?relay
    187            HalUARTWrite(0,"Hello World\n",12); //（串口0，'字符'，字符个数。）
   \   00001E                ; Setup parameters for call to function HalUARTWrite
   \   00001E   7C0C         MOV     R4,#0xc
   \   000020   7D00         MOV     R5,#0x0
   \   000022   7A..         MOV     R2,#`?<Constant "Hello World\\n">` & 0xff
   \   000024   7B..         MOV     R3,#(`?<Constant "Hello World\\n">` >> 8) & 0xff
   \   000026   7900         MOV     R1,#0x0
   \   000028   12....       LCALL   ??HalUARTWrite?relay
    188            
    189            
    190            // Device hardware initialization can be added here or in main() (Zmain.c).
    191            // If the hardware is application specific - add it here.
    192            // If the hardware is other parts of the device add it in main().
    193          
    194           #if defined ( BUILD_ALL_DEVICES )
    195            // The "Demo" target is setup to have BUILD_ALL_DEVICES and HOLD_AUTO_START
    196            // We are looking at a jumper (defined in SampleAppHw.c) to be jumpered
    197            // together - if they are - we will start up a coordinator. Otherwise,
    198            // the device will start as a router.
    199            if ( readCoordinatorJumper() )
    200              zgDeviceLogicalType = ZG_DEVICETYPE_COORDINATOR;
    201            else
    202              zgDeviceLogicalType = ZG_DEVICETYPE_ROUTER;
    203          #endif // BUILD_ALL_DEVICES
    204          
    205          #if defined ( HOLD_AUTO_START )
    206            // HOLD_AUTO_START is a compile option that will surpress ZDApp
    207            //  from starting the device and wait for the application to
    208            //  start the device.
    209            ZDOInitDevice(0);
    210          #endif
    211          
    212            // Setup for the periodic message's destination address
    213            // Broadcast to everyone
    214            SampleApp_Periodic_DstAddr.addrMode = (afAddrMode_t)AddrBroadcast;
   \   00002B   90....       MOV     DPTR,#SampleApp_Periodic_DstAddr + 8
   \   00002E   740F         MOV     A,#0xf
   \   000030   F0           MOVX    @DPTR,A
    215            SampleApp_Periodic_DstAddr.endPoint = SAMPLEAPP_ENDPOINT;
   \   000031   A3           INC     DPTR
   \   000032   7414         MOV     A,#0x14
   \   000034   F0           MOVX    @DPTR,A
    216            SampleApp_Periodic_DstAddr.addr.shortAddr = 0xFFFF;
   \   000035   90....       MOV     DPTR,#SampleApp_Periodic_DstAddr
   \   000038   74FF         MOV     A,#-0x1
   \   00003A   F0           MOVX    @DPTR,A
   \   00003B   A3           INC     DPTR
   \   00003C   F0           MOVX    @DPTR,A
    217          
    218            // Setup for the flash command's destination address - Group 1
    219            SampleApp_Flash_DstAddr.addrMode = (afAddrMode_t)afAddrGroup;
   \   00003D   90....       MOV     DPTR,#SampleApp_Flash_DstAddr + 8
   \   000040   7401         MOV     A,#0x1
   \   000042   F0           MOVX    @DPTR,A
    220            SampleApp_Flash_DstAddr.endPoint = SAMPLEAPP_ENDPOINT;
   \   000043   A3           INC     DPTR
   \   000044   7414         MOV     A,#0x14
   \   000046   F0           MOVX    @DPTR,A
    221            SampleApp_Flash_DstAddr.addr.shortAddr = SAMPLEAPP_FLASH_GROUP;
   \   000047   90....       MOV     DPTR,#SampleApp_Flash_DstAddr
   \   00004A   7401         MOV     A,#0x1
   \   00004C   F0           MOVX    @DPTR,A
   \   00004D   A3           INC     DPTR
   \   00004E   E4           CLR     A
   \   00004F   F0           MOVX    @DPTR,A
    222          
    223            // Fill out the endpoint description.
    224            SampleApp_epDesc.endPoint = SAMPLEAPP_ENDPOINT;
   \   000050   90....       MOV     DPTR,#SampleApp_epDesc
   \   000053   7414         MOV     A,#0x14
   \   000055   F0           MOVX    @DPTR,A
    225            SampleApp_epDesc.task_id = &SampleApp_TaskID;
   \   000056   A3           INC     DPTR
   \   000057   74..         MOV     A,#SampleApp_TaskID & 0xff
   \   000059   F0           MOVX    @DPTR,A
   \   00005A   A3           INC     DPTR
   \   00005B   74..         MOV     A,#(SampleApp_TaskID >> 8) & 0xff
   \   00005D   F0           MOVX    @DPTR,A
    226            SampleApp_epDesc.simpleDesc
    227                      = (SimpleDescriptionFormat_t *)&SampleApp_SimpleDesc;
   \   00005E   A3           INC     DPTR
   \   00005F   74..         MOV     A,#SampleApp_SimpleDesc & 0xff
   \   000061   F0           MOVX    @DPTR,A
   \   000062   A3           INC     DPTR
   \   000063   74..         MOV     A,#(SampleApp_SimpleDesc >> 8) & 0xff
   \   000065   F0           MOVX    @DPTR,A
    228            SampleApp_epDesc.latencyReq = noLatencyReqs;
   \   000066   A3           INC     DPTR
   \   000067   E4           CLR     A
   \   000068   F0           MOVX    @DPTR,A
    229          
    230            // Register the endpoint description with the AF
    231            afRegister( &SampleApp_epDesc );
   \   000069                ; Setup parameters for call to function afRegister
   \   000069   7A..         MOV     R2,#SampleApp_epDesc & 0xff
   \   00006B   7B..         MOV     R3,#(SampleApp_epDesc >> 8) & 0xff
   \   00006D   12....       LCALL   ??afRegister?relay
    232          
    233            // Register for all key events - This app will handle all key events
    234            RegisterForKeys( SampleApp_TaskID );
   \   000070                ; Setup parameters for call to function RegisterForKeys
   \   000070   90....       MOV     DPTR,#SampleApp_TaskID
   \   000073   E0           MOVX    A,@DPTR
   \   000074   F9           MOV     R1,A
   \   000075   12....       LCALL   ??RegisterForKeys?relay
    235          
    236            // By default, all devices start out in Group 1
    237            SampleApp_Group.ID = 0x0001;
   \   000078   90....       MOV     DPTR,#SampleApp_Group
   \   00007B   7401         MOV     A,#0x1
   \   00007D   F0           MOVX    @DPTR,A
   \   00007E   A3           INC     DPTR
   \   00007F   E4           CLR     A
   \   000080   F0           MOVX    @DPTR,A
    238            osal_memcpy( SampleApp_Group.name, "Group 1", 7  );
   \   000081                ; Setup parameters for call to function osal_memcpy
   \   000081   75....       MOV     ?V0 + 0,#`?<Constant "Group 1">` & 0xff
   \   000084   75....       MOV     ?V0 + 1,#(`?<Constant "Group 1">` >> 8) & 0xff
   \   000087   F5..         MOV     ?V0 + 2,A
   \   000089   78..         MOV     R0,#?V0 + 0
   \   00008B   12....       LCALL   ?PUSH_XSTACK_I_THREE
   \   00008E   7C07         MOV     R4,#0x7
   \   000090   7D00         MOV     R5,#0x0
   \   000092   7A..         MOV     R2,#(SampleApp_Group + 2) & 0xff
   \   000094   7B..         MOV     R3,#((SampleApp_Group + 2) >> 8) & 0xff
   \   000096   12....       LCALL   ??osal_memcpy?relay
   \   000099   7403         MOV     A,#0x3
   \   00009B   12....       LCALL   ?DEALLOC_XSTACK8
    239            aps_AddGroup( SAMPLEAPP_ENDPOINT, &SampleApp_Group );
   \   00009E                ; Setup parameters for call to function aps_AddGroup
   \   00009E   7A..         MOV     R2,#SampleApp_Group & 0xff
   \   0000A0   7B..         MOV     R3,#(SampleApp_Group >> 8) & 0xff
   \   0000A2   7914         MOV     R1,#0x14
   \   0000A4   12....       LCALL   ??aps_AddGroup?relay
    240          
    241          #if defined ( LCD_SUPPORTED )
    242            HalLcdWriteString( "SampleApp", HAL_LCD_LINE_1 );
   \   0000A7                ; Setup parameters for call to function HalLcdWriteString
   \   0000A7   7901         MOV     R1,#0x1
   \   0000A9   7A..         MOV     R2,#`?<Constant "SampleApp">` & 0xff
   \   0000AB   7B..         MOV     R3,#(`?<Constant "SampleApp">` >> 8) & 0xff
   \   0000AD   12....       LCALL   ??HalLcdWriteString?relay
    243          #endif
    244          }
   \   0000B0   7F03         MOV     R7,#0x3
   \   0000B2   02....       LJMP    ?BANKED_LEAVE_XDATA
    245          
    246          /*********************************************************************
    247           * @fn      SampleApp_ProcessEvent
    248           *
    249           * @brief   Generic Application Task event processor.  This function
    250           *          is called to process all events for the task.  Events
    251           *          include timers, messages and any other user defined events.
    252           *
    253           * @param   task_id  - The OSAL assigned task ID.
    254           * @param   events - events to process.  This is a bit map and can
    255           *                   contain more than one event.
    256           *
    257           * @return  none
    258           */

   \                                 In  segment BANKED_CODE, align 1, keep-with-next
    259          uint16 SampleApp_ProcessEvent( uint8 task_id, uint16 events )
   \                     SampleApp_ProcessEvent:
    260          {
   \   000000   74F4         MOV     A,#-0xc
   \   000002   12....       LCALL   ?BANKED_ENTER_XDATA
   \   000005                ; Saved register size: 12
   \   000005                ; Auto size: 0
   \   000005   EA           MOV     A,R2
   \   000006   FE           MOV     R6,A
   \   000007   EB           MOV     A,R3
   \   000008   FF           MOV     R7,A
    261            afIncomingMSGPacket_t *MSGpkt;
    262            (void)task_id;  // Intentionally unreferenced parameter
    263          
    264            if ( events & SYS_EVENT_MSG )
   \   000009   5480         ANL     A,#0x80
   \   00000B   7003         JNZ     $+5
   \   00000D   02....       LJMP    ??SampleApp_ProcessEvent_0 & 0xFFFF
    265            {
    266              MSGpkt = (afIncomingMSGPacket_t *)osal_msg_receive( SampleApp_TaskID );
   \   000010                ; Setup parameters for call to function osal_msg_receive
   \   000010   802B         SJMP    ??SampleApp_ProcessEvent_1
    267              while ( MSGpkt )
    268              {
    269                switch ( MSGpkt->hdr.event )
    270                {
    271                  case CMD_SERIAL_MSG:  //串口收到数据后由MT_UART层传递过来的数据
    272                   SampleApp_SerialCMD((mtOSALSerialData_t *)MSGpkt);
    273                   break;
    274          
    275                  // Received when a key is pressed
    276                    case KEY_CHANGE:
    277                    SampleApp_HandleKeys( ((keyChange_t *)MSGpkt)->state, ((keyChange_t *)MSGpkt)->keys );
    278                    break;
    279          
    280                  // Received when a messages is received (OTA) for this endpoint
    281                  case AF_INCOMING_MSG_CMD:
    282                    SampleApp_MessageMSGCB( MSGpkt );
    283                    break;
    284          
    285                  // Received whenever the device changes state in the network
    286                  case ZDO_STATE_CHANGE:
    287                    SampleApp_NwkState = (devStates_t)(MSGpkt->hdr.status);
   \                     ??SampleApp_ProcessEvent_2:
   \   000012   A3           INC     DPTR
   \   000013   E0           MOVX    A,@DPTR
   \   000014   90....       MOV     DPTR,#SampleApp_NwkState
   \   000017   F0           MOVX    @DPTR,A
    288                    if ( (SampleApp_NwkState == DEV_ZB_COORD)
    289                        || (SampleApp_NwkState == DEV_ROUTER)
    290                        || (SampleApp_NwkState == DEV_END_DEVICE) )
   \   000018   6409         XRL     A,#0x9
   \   00001A   600A         JZ      ??SampleApp_ProcessEvent_3
   \   00001C   E0           MOVX    A,@DPTR
   \   00001D   6407         XRL     A,#0x7
   \   00001F   6005         JZ      ??SampleApp_ProcessEvent_3
   \   000021   E0           MOVX    A,@DPTR
   \   000022   6406         XRL     A,#0x6
   \   000024   7010         JNZ     ??SampleApp_ProcessEvent_4
    291                    {
    292                      // Start sending the periodic message in a regular interval.
    293                      osal_start_timerEx( SampleApp_TaskID,
    294                                        SAMPLEAPP_SEND_PERIODIC_MSG_EVT,
    295                                        SAMPLEAPP_SEND_PERIODIC_MSG_TIMEOUT );
   \                     ??SampleApp_ProcessEvent_3:
   \   000026                ; Setup parameters for call to function osal_start_timerEx
   \   000026   7C88         MOV     R4,#-0x78
   \   000028   7D13         MOV     R5,#0x13
   \   00002A   7A01         MOV     R2,#0x1
   \   00002C   7B00         MOV     R3,#0x0
   \   00002E   90....       MOV     DPTR,#SampleApp_TaskID
   \   000031   E0           MOVX    A,@DPTR
   \   000032   F9           MOV     R1,A
   \   000033   12....       LCALL   ??osal_start_timerEx?relay
    296                    }
    297                    else
    298                    {
    299                      // Device is no longer in the network
    300                    }
    301                    break;
    302          
    303                  default:
    304                    break;
    305                }
    306          
    307                // Release the memory
    308                osal_msg_deallocate( (uint8 *)MSGpkt );
   \                     ??SampleApp_ProcessEvent_4:
   \   000036                ; Setup parameters for call to function osal_msg_deallocate
   \   000036   AA..         MOV     R2,?V0 + 0
   \   000038   AB..         MOV     R3,?V0 + 1
   \   00003A   12....       LCALL   ??osal_msg_deallocate?relay
    309          
    310                // Next - if one is available
    311                MSGpkt = (afIncomingMSGPacket_t *)osal_msg_receive( SampleApp_TaskID );
   \   00003D                ; Setup parameters for call to function osal_msg_receive
   \                     ??SampleApp_ProcessEvent_1:
   \   00003D   90....       MOV     DPTR,#SampleApp_TaskID
   \   000040   E0           MOVX    A,@DPTR
   \   000041   F9           MOV     R1,A
   \   000042   12....       LCALL   ??osal_msg_receive?relay
   \   000045   8A..         MOV     ?V0 + 0,R2
   \   000047   8B..         MOV     ?V0 + 1,R3
   \   000049   E5..         MOV     A,?V0 + 0
   \   00004B   45..         ORL     A,?V0 + 1
   \   00004D   603E         JZ      ??SampleApp_ProcessEvent_5
   \   00004F   85..82       MOV     DPL,?V0 + 0
   \   000052   85..83       MOV     DPH,?V0 + 1
   \   000055   E0           MOVX    A,@DPTR
   \   000056   14           DEC     A
   \   000057   600E         JZ      ??SampleApp_ProcessEvent_6
   \   000059   24E7         ADD     A,#-0x19
   \   00005B   6027         JZ      ??SampleApp_ProcessEvent_7
   \   00005D   245A         ADD     A,#0x5a
   \   00005F   600F         JZ      ??SampleApp_ProcessEvent_8
   \   000061   24EF         ADD     A,#-0x11
   \   000063   60AD         JZ      ??SampleApp_ProcessEvent_2
   \   000065   80CF         SJMP    ??SampleApp_ProcessEvent_4
   \                     ??SampleApp_ProcessEvent_6:
   \   000067                ; Setup parameters for call to function SampleApp_SerialCMD
   \   000067   AA..         MOV     R2,?V0 + 0
   \   000069   AB..         MOV     R3,?V0 + 1
   \   00006B   12....       LCALL   ??SampleApp_SerialCMD?relay
   \   00006E   80C6         SJMP    ??SampleApp_ProcessEvent_4
   \                     ??SampleApp_ProcessEvent_8:
   \   000070                ; Setup parameters for call to function SampleApp_HandleKeys
   \   000070   A3           INC     DPTR
   \   000071   A3           INC     DPTR
   \   000072   A3           INC     DPTR
   \   000073   E0           MOVX    A,@DPTR
   \   000074   FA           MOV     R2,A
   \   000075   85..82       MOV     DPL,?V0 + 0
   \   000078   85..83       MOV     DPH,?V0 + 1
   \   00007B   A3           INC     DPTR
   \   00007C   A3           INC     DPTR
   \   00007D   E0           MOVX    A,@DPTR
   \   00007E   F9           MOV     R1,A
   \   00007F   12....       LCALL   ??SampleApp_HandleKeys?relay
   \   000082   80B2         SJMP    ??SampleApp_ProcessEvent_4
   \                     ??SampleApp_ProcessEvent_7:
   \   000084                ; Setup parameters for call to function SampleApp_MessageMSGCB
   \   000084   AA..         MOV     R2,?V0 + 0
   \   000086   AB..         MOV     R3,?V0 + 1
   \   000088   12....       LCALL   ??SampleApp_MessageMSGCB?relay
   \   00008B   80A9         SJMP    ??SampleApp_ProcessEvent_4
    312              }
    313          
    314              // return unprocessed events
    315              return (events ^ SYS_EVENT_MSG);
   \                     ??SampleApp_ProcessEvent_5:
   \   00008D   EE           MOV     A,R6
   \   00008E   FA           MOV     R2,A
   \   00008F   EF           MOV     A,R7
   \   000090   6480         XRL     A,#0x80
   \                     ??SampleApp_ProcessEvent_9:
   \   000092   FB           MOV     R3,A
   \   000093   8027         SJMP    ??SampleApp_ProcessEvent_10
    316            }
    317          
    318            // Send a message out - This event is generated by a timer
    319            //  (setup in SampleApp_Init()).
    320            if ( events & SAMPLEAPP_SEND_PERIODIC_MSG_EVT )
   \                     ??SampleApp_ProcessEvent_0:
   \   000095   EE           MOV     A,R6
   \   000096   A2E0         MOV     C,0xE0 /* A   */.0
   \   000098   501E         JNC     ??SampleApp_ProcessEvent_11
    321            {
    322              // Send the periodic message
    323              //SampleApp_SendPeriodicMessage();
    324          
    325              // Setup to send message again in normal period (+ a little jitter)
    326              osal_start_timerEx( SampleApp_TaskID, SAMPLEAPP_SEND_PERIODIC_MSG_EVT,
    327                  (SAMPLEAPP_SEND_PERIODIC_MSG_TIMEOUT + (osal_rand() & 0x00FF)) );
   \   00009A                ; Setup parameters for call to function osal_rand
   \   00009A   12....       LCALL   ??osal_rand?relay
   \   00009D                ; Setup parameters for call to function osal_start_timerEx
   \   00009D   EA           MOV     A,R2
   \   00009E   2488         ADD     A,#-0x78
   \   0000A0   FC           MOV     R4,A
   \   0000A1   E4           CLR     A
   \   0000A2   3413         ADDC    A,#0x13
   \   0000A4   FD           MOV     R5,A
   \   0000A5   7A01         MOV     R2,#0x1
   \   0000A7   7B00         MOV     R3,#0x0
   \   0000A9   90....       MOV     DPTR,#SampleApp_TaskID
   \   0000AC   E0           MOVX    A,@DPTR
   \   0000AD   F9           MOV     R1,A
   \   0000AE   12....       LCALL   ??osal_start_timerEx?relay
    328          
    329              // return unprocessed events
    330              return (events ^ SAMPLEAPP_SEND_PERIODIC_MSG_EVT);
   \   0000B1   EE           MOV     A,R6
   \   0000B2   6401         XRL     A,#0x1
   \   0000B4   FA           MOV     R2,A
   \   0000B5   EF           MOV     A,R7
   \   0000B6   80DA         SJMP    ??SampleApp_ProcessEvent_9
    331            }
    332          
    333            // Discard unknown events
    334            return 0;
   \                     ??SampleApp_ProcessEvent_11:
   \   0000B8   7A00         MOV     R2,#0x0
   \   0000BA   7B00         MOV     R3,#0x0
   \                     ??SampleApp_ProcessEvent_10:
   \   0000BC                REQUIRE ?Subroutine0
   \   0000BC                ; // Fall through to label ?Subroutine0
    335          }

   \                                 In  segment BANKED_CODE, align 1, keep-with-next
   \                     ?Subroutine0:
   \   000000   7F04         MOV     R7,#0x4
   \   000002   02....       LJMP    ?BANKED_LEAVE_XDATA
    336          
    337          /*********************************************************************
    338           * Event Generation Functions
    339           */
    340          /*********************************************************************
    341           * @fn      SampleApp_HandleKeys
    342           *
    343           * @brief   Handles all key events for this device.
    344           *
    345           * @param   shift - true if in shift/alt.
    346           * @param   keys - bit field for key events. Valid entries:
    347           *                 HAL_KEY_SW_2
    348           *                 HAL_KEY_SW_1
    349           *
    350           * @return  none
    351           */

   \                                 In  segment BANKED_CODE, align 1, keep-with-next
    352          void SampleApp_HandleKeys( uint8 shift, uint8 keys )
   \                     SampleApp_HandleKeys:
    353          {
   \   000000   74F6         MOV     A,#-0xa
   \   000002   12....       LCALL   ?BANKED_ENTER_XDATA
   \   000005                ; Saved register size: 10
   \   000005                ; Auto size: 0
   \   000005   EA           MOV     A,R2
   \   000006   FE           MOV     R6,A
    354            (void)shift;  // Intentionally unreferenced parameter
    355            
    356            if ( keys & HAL_KEY_SW_1 )
   \   000007   A2E0         MOV     C,0xE0 /* A   */.0
   \   000009   5007         JNC     ??SampleApp_HandleKeys_0
    357            {
    358              /* This key sends the Flash Command is sent to Group 1.
    359               * This device will not receive the Flash Command from this
    360               * device (even if it belongs to group 1).
    361               */
    362              SampleApp_SendFlashMessage( SAMPLEAPP_FLASH_DURATION );
   \   00000B                ; Setup parameters for call to function SampleApp_SendFlashMessage
   \   00000B   7AE8         MOV     R2,#-0x18
   \   00000D   7B03         MOV     R3,#0x3
   \   00000F   12....       LCALL   ??SampleApp_SendFlashMessage?relay
    363            }
    364          
    365            if ( keys & HAL_KEY_SW_2 )
   \                     ??SampleApp_HandleKeys_0:
   \   000012   EE           MOV     A,R6
   \   000013   A2E1         MOV     C,0xE0 /* A   */.1
   \   000015   5024         JNC     ??SampleApp_HandleKeys_1
    366            {
    367              /* The Flashr Command is sent to Group 1.
    368               * This key toggles this device in and out of group 1.
    369               * If this device doesn't belong to group 1, this application
    370               * will not receive the Flash command sent to group 1.
    371               */
    372              aps_Group_t *grp;
    373              grp = aps_FindGroup( SAMPLEAPP_ENDPOINT, SAMPLEAPP_FLASH_GROUP );
    374              if ( grp )
   \   000017                ; Setup parameters for call to function aps_FindGroup
   \   000017   7A01         MOV     R2,#0x1
   \   000019   7B00         MOV     R3,#0x0
   \   00001B   7914         MOV     R1,#0x14
   \   00001D   12....       LCALL   ??aps_FindGroup?relay
   \   000020   8B..         MOV     ?V0 + 1,R3
   \   000022   EA           MOV     A,R2
   \   000023   45..         ORL     A,?V0 + 1
   \   000025   600B         JZ      ??SampleApp_HandleKeys_2
    375              {
    376                // Remove from the group
    377                aps_RemoveGroup( SAMPLEAPP_ENDPOINT, SAMPLEAPP_FLASH_GROUP );
   \   000027                ; Setup parameters for call to function aps_RemoveGroup
   \   000027   7A01         MOV     R2,#0x1
   \   000029   7B00         MOV     R3,#0x0
   \   00002B   7914         MOV     R1,#0x14
   \   00002D   12....       LCALL   ??aps_RemoveGroup?relay
   \   000030   8009         SJMP    ??SampleApp_HandleKeys_1
    378              }
    379              else
    380              {
    381                // Add to the flash group
    382                aps_AddGroup( SAMPLEAPP_ENDPOINT, &SampleApp_Group );
   \                     ??SampleApp_HandleKeys_2:
   \   000032                ; Setup parameters for call to function aps_AddGroup
   \   000032   7A..         MOV     R2,#SampleApp_Group & 0xff
   \   000034   7B..         MOV     R3,#(SampleApp_Group >> 8) & 0xff
   \   000036   7914         MOV     R1,#0x14
   \   000038   12....       LCALL   ??aps_AddGroup?relay
    383              }
    384            }
    385          }
   \                     ??SampleApp_HandleKeys_1:
   \   00003B   02....       LJMP    ??Subroutine21_0 & 0xFFFF

   \                                 In  segment BANKED_CODE, align 1, keep-with-next
   \                     ??Subroutine21_0:
   \   000000   7F02         MOV     R7,#0x2
   \   000002   02....       LJMP    ?BANKED_LEAVE_XDATA
    386          
    387          /*********************************************************************
    388           * LOCAL FUNCTIONS
    389           */
    390          
    391          /*********************************************************************
    392           * @fn      SampleApp_MessageMSGCB
    393           *
    394           * @brief   Data message processor callback.  This function processes
    395           *          any incoming data - probably from other devices.  So, based
    396           *          on cluster ID, perform the intended action.
    397           *
    398           * @param   none
    399           *
    400           * @return  none
    401           */

   \                                 In  segment XDATA_Z, align 1, keep-with-next
    402          uint8 buffer[100],len1;
   \                     buffer:
   \   000000                DS 100
   \   000064                REQUIRE __INIT_XDATA_Z

   \                                 In  segment XDATA_Z, align 1, keep-with-next
   \                     len1:
   \   000000                DS 1
   \   000001                REQUIRE __INIT_XDATA_Z

   \                                 In  segment BANKED_CODE, align 1, keep-with-next
    403          void SampleApp_MessageMSGCB( afIncomingMSGPacket_t *pkt )
   \                     SampleApp_MessageMSGCB:
    404          {
   \   000000   74EE         MOV     A,#-0x12
   \   000002   12....       LCALL   ?BANKED_ENTER_XDATA
   \   000005                ; Saved register size: 18
   \   000005                ; Auto size: 16
   \   000005   74F0         MOV     A,#-0x10
   \   000007   12....       LCALL   ?ALLOC_XSTACK8
   \   00000A   8A..         MOV     ?V0 + 2,R2
   \   00000C   8B..         MOV     ?V0 + 3,R3
    405            uint8 asc_16[16]={'0','1','2','3','4','5','6','7','8','9','A','B','C','D','E','F'};
   \   00000E   85..82       MOV     DPL,?XSP + 0
   \   000011   85..83       MOV     DPH,?XSP + 1
   \   000014   AC82         MOV     R4,DPL
   \   000016   AD83         MOV     R5,DPH
   \   000018   7583..       MOV     DPH,#(`?<Constant {48, 49, 50, 51, 52, 53, 54, 55, 56` >> 8) & 0xff
   \   00001B   7582..       MOV     DPL,#`?<Constant {48, 49, 50, 51, 52, 53, 54, 55, 56` & 0xff
   \   00001E   7410         MOV     A,#0x10
   \   000020   12....       LCALL   ?MOVE_LONG8_XDATA_XDATA
    406            switch ( pkt->clusterId )
   \   000023   8A82         MOV     DPL,R2
   \   000025   8B83         MOV     DPH,R3
   \   000027   A3           INC     DPTR
   \   000028   A3           INC     DPTR
   \   000029   A3           INC     DPTR
   \   00002A   A3           INC     DPTR
   \   00002B   E0           MOVX    A,@DPTR
   \   00002C   F5..         MOV     ?V0 + 0,A
   \   00002E   A3           INC     DPTR
   \   00002F   E0           MOVX    A,@DPTR
   \   000030   F5..         MOV     ?V0 + 1,A
   \   000032   78..         MOV     R0,#?V0 + 0
   \   000034   12....       LCALL   ?US_SWITCH_DENSE
   \                     `?<Jumptable for SampleApp_MessageMSGCB>_0`:
   \   000037   0100         DW        1
   \   000039   02           DB        2
   \   00003A   ....         DW        ??SampleApp_MessageMSGCB_0
   \   00003C   ....         DW        ??SampleApp_MessageMSGCB_1
   \   00003E   ....         DW        ??SampleApp_MessageMSGCB_0
   \   000040   ....         DW        ??SampleApp_MessageMSGCB_2
    407            {
    408              uint8 len,i,channels;
    409              uint16 shortads,panId,reshortads;
    410              char RSI;
    411              
    412              case SAMPLEAPP_COM_CLUSTERID:     //如果是串口透传的信息
    413                HalLedBlink(HAL_LED_1, 5,50,500 );
   \                     ??SampleApp_MessageMSGCB_2:
   \   000042                ; Setup parameters for call to function HalLedBlink
   \   000042   7CF4         MOV     R4,#-0xc
   \   000044   7D01         MOV     R5,#0x1
   \   000046   7B32         MOV     R3,#0x32
   \   000048   7A05         MOV     R2,#0x5
   \   00004A   7901         MOV     R1,#0x1
   \   00004C   12....       LCALL   ??HalLedBlink?relay
    414                 buffer[0]=pkt->cmd.Data[0];
   \   00004F   12....       LCALL   ?Subroutine6 & 0xFFFF
   \                     ??CrossCallReturnLabel_6:
   \   000052   90....       MOV     DPTR,#buffer
   \   000055   F0           MOVX    @DPTR,A
    415                for(i=0;i<buffer[0];i++) 
   \   000056   75..00       MOV     ?V0 + 4,#0x0
   \   000059   801B         SJMP    ??SampleApp_MessageMSGCB_3
    416                  buffer[i+1] = pkt->cmd.Data[i+1];
   \                     ??SampleApp_MessageMSGCB_4:
   \   00005B   85..82       MOV     DPL,?V0 + 4
   \   00005E   A882         MOV     R0,DPL
   \   000060   12....       LCALL   ?Subroutine3 & 0xFFFF
   \                     ??CrossCallReturnLabel_0:
   \   000063   E0           MOVX    A,@DPTR
   \   000064   C0E0         PUSH    A
   \   000066   74..         MOV     A,#(buffer + 1) & 0xff
   \   000068   28           ADD     A,R0
   \   000069   F582         MOV     DPL,A
   \   00006B   74..         MOV     A,#((buffer + 1) >> 8) & 0xff
   \   00006D   3400         ADDC    A,#0x0
   \   00006F   F583         MOV     DPH,A
   \   000071   D0E0         POP     A
   \   000073   F0           MOVX    @DPTR,A
   \   000074   05..         INC     ?V0 + 4
   \                     ??SampleApp_MessageMSGCB_3:
   \   000076   90....       MOV     DPTR,#buffer
   \   000079   E0           MOVX    A,@DPTR
   \   00007A   F8           MOV     R0,A
   \   00007B   E5..         MOV     A,?V0 + 4
   \   00007D   C3           CLR     C
   \   00007E   98           SUBB    A,R0
   \   00007F   40DA         JC      ??SampleApp_MessageMSGCB_4
    417                SampleApp_SendPeriodicMessage();break;
   \   000081                ; Setup parameters for call to function SampleApp_SendPeriodicMessage
   \   000081   12....       LCALL   ??SampleApp_SendPeriodicMessage?relay
   \   000084   02....       LJMP    ??SampleApp_MessageMSGCB_0 & 0xFFFF
    418              
    419            
    420              case SAMPLEAPP_PERIODIC_CLUSTERID:  
    421                //HalUARTWrite(0,"Great MenGe",11 ); 
    422                shortads = NLME_GetShortAddr();//pkt->srcAddr.addr.shortAddr;
   \                     ??SampleApp_MessageMSGCB_1:
   \   000087                ; Setup parameters for call to function NLME_GetShortAddr
   \   000087   12....       LCALL   ??NLME_GetShortAddr?relay
   \   00008A   8A..         MOV     ?V0 + 0,R2
   \   00008C   8B..         MOV     ?V0 + 1,R3
    423                reshortads = pkt->srcAddr.addr.shortAddr;
   \   00008E   85..82       MOV     DPL,?V0 + 2
   \   000091   85..83       MOV     DPH,?V0 + 3
   \   000094   A3           INC     DPTR
   \   000095   A3           INC     DPTR
   \   000096   A3           INC     DPTR
   \   000097   A3           INC     DPTR
   \   000098   A3           INC     DPTR
   \   000099   A3           INC     DPTR
   \   00009A   E0           MOVX    A,@DPTR
   \   00009B   F5..         MOV     ?V0 + 6,A
   \   00009D   A3           INC     DPTR
   \   00009E   E0           MOVX    A,@DPTR
   \   00009F   F5..         MOV     ?V0 + 7,A
    424                panId = pkt->srcAddr.panId;
   \   0000A1   E5..         MOV     A,?V0 + 2
   \   0000A3   2410         ADD     A,#0x10
   \   0000A5   12....       LCALL   ??Subroutine19_0 & 0xFFFF
   \                     ??CrossCallReturnLabel_39:
   \   0000A8   FE           MOV     R6,A
   \   0000A9   A3           INC     DPTR
   \   0000AA   E0           MOVX    A,@DPTR
   \   0000AB   FF           MOV     R7,A
    425                RSI = pkt->rssi;
   \   0000AC   E5..         MOV     A,?V0 + 2
   \   0000AE   2418         ADD     A,#0x18
   \   0000B0   12....       LCALL   ??Subroutine19_0 & 0xFFFF
   \                     ??CrossCallReturnLabel_40:
   \   0000B3   F5..         MOV     ?V0 + 8,A
    426                channels = _NIB.nwkLogicalChannel;
   \   0000B5   90....       MOV     DPTR,#_NIB + 22
   \   0000B8   E0           MOVX    A,@DPTR
   \   0000B9   F5..         MOV     ?V0 + 9,A
    427               // endPoint = pkt->srcAddr.endPoint;
    428                
    429                len=pkt->cmd.Data[0];
   \   0000BB   12....       LCALL   ?Subroutine6 & 0xFFFF
   \                     ??CrossCallReturnLabel_7:
   \   0000BE   F5..         MOV     ?V0 + 5,A
    430                HalUARTWrite(0,"Data:",5);
   \   0000C0                ; Setup parameters for call to function HalUARTWrite
   \   0000C0   7C05         MOV     R4,#0x5
   \   0000C2   7D00         MOV     R5,#0x0
   \   0000C4   7A..         MOV     R2,#`?<Constant "Data:">` & 0xff
   \   0000C6   7B..         MOV     R3,#(`?<Constant "Data:">` >> 8) & 0xff
   \   0000C8   7900         MOV     R1,#0x0
   \   0000CA   12....       LCALL   ??HalUARTWrite?relay
    431                for(i=0;i<len;i++)
   \   0000CD   75..00       MOV     ?V0 + 4,#0x0
   \   0000D0   8014         SJMP    ??SampleApp_MessageMSGCB_5
    432                HalUARTWrite(0,&pkt->cmd.Data[i+1],1);//发给PC机
   \                     ??SampleApp_MessageMSGCB_6:
   \   0000D2                ; Setup parameters for call to function HalUARTWrite
   \   0000D2   7C01         MOV     R4,#0x1
   \   0000D4   7D00         MOV     R5,#0x0
   \   0000D6   A8..         MOV     R0,?V0 + 4
   \   0000D8   12....       LCALL   ?Subroutine3 & 0xFFFF
   \                     ??CrossCallReturnLabel_1:
   \   0000DB   AA82         MOV     R2,DPL
   \   0000DD   AB83         MOV     R3,DPH
   \   0000DF   7900         MOV     R1,#0x0
   \   0000E1   12....       LCALL   ??HalUARTWrite?relay
   \   0000E4   05..         INC     ?V0 + 4
   \                     ??SampleApp_MessageMSGCB_5:
   \   0000E6   E5..         MOV     A,?V0 + 4
   \   0000E8   C3           CLR     C
   \   0000E9   95..         SUBB    A,?V0 + 5
   \   0000EB   40E5         JC      ??SampleApp_MessageMSGCB_6
    433                HalUARTWrite(0,"\r\n",2);   
   \   0000ED   75....       MOV     ?V0 + 2,#`?<Constant "\\r\\n">` & 0xff
   \   0000F0   75....       MOV     ?V0 + 3,#(`?<Constant "\\r\\n">` >> 8) & 0xff
   \   0000F3                ; Setup parameters for call to function HalUARTWrite
   \   0000F3   7C02         MOV     R4,#0x2
   \   0000F5   7D00         MOV     R5,#0x0
   \   0000F7   AA..         MOV     R2,?V0 + 2
   \   0000F9   AB..         MOV     R3,?V0 + 3
   \   0000FB   7900         MOV     R1,#0x0
   \   0000FD   12....       LCALL   ??HalUARTWrite?relay
    434                HalUARTWrite(0,"shortAddress: 0x",16);
   \   000100                ; Setup parameters for call to function HalUARTWrite
   \   000100   7C10         MOV     R4,#0x10
   \   000102   7D00         MOV     R5,#0x0
   \   000104   7A..         MOV     R2,#`?<Constant "shortAddress: 0x">` & 0xff
   \   000106   7B..         MOV     R3,#(`?<Constant "shortAddress: 0x">` >> 8) & 0xff
   \   000108   12....       LCALL   ??Subroutine18_0 & 0xFFFF
    435                //if(shortads == 0xff00) HalUARTWrite(0,"Get panId success",21);
    436                HalUARTWrite(0,&asc_16[shortads/4096],1);
   \                     ??CrossCallReturnLabel_30:
   \   00010B   85....       MOV     ?V0 + 4,?V0 + 0
   \   00010E   85....       MOV     ?V0 + 5,?V0 + 1
   \   000111   740C         MOV     A,#0xc
   \   000113   78..         MOV     R0,#?V0 + 4
   \   000115   12....       LCALL   ?US_SHR
   \   000118   85..82       MOV     DPL,?XSP + 0
   \   00011B   85..83       MOV     DPH,?XSP + 1
   \   00011E   E582         MOV     A,DPL
   \   000120   25..         ADD     A,?V0 + 4
   \   000122   12....       LCALL   ??Subroutine17_0 & 0xFFFF
    437                HalUARTWrite(0,&asc_16[shortads%4096/256],1);
   \                     ??CrossCallReturnLabel_27:
   \   000125   A9..         MOV     R1,?V0 + 1
   \   000127   12....       LCALL   ?Subroutine10 & 0xFFFF
   \                     ??CrossCallReturnLabel_13:
   \   00012A   12....       LCALL   ?Subroutine4 & 0xFFFF
    438                HalUARTWrite(0,&asc_16[shortads%256/16],1);
   \                     ??CrossCallReturnLabel_2:
   \   00012D   12....       LCALL   ?Subroutine9 & 0xFFFF
   \                     ??CrossCallReturnLabel_10:
   \   000130   12....       LCALL   ?Subroutine4 & 0xFFFF
    439                HalUARTWrite(0,&asc_16[shortads%16],1); 
   \                     ??CrossCallReturnLabel_3:
   \   000133   12....       LCALL   ?Subroutine2 & 0xFFFF
    440                HalUARTWrite(0,"\r\n",2);
    441                HalUARTWrite(0,"rec shortAddress: 0x",20);
   \                     ??CrossCallReturnLabel_43:
   \   000136                ; Setup parameters for call to function HalUARTWrite
   \   000136   7C14         MOV     R4,#0x14
   \   000138   7D00         MOV     R5,#0x0
   \   00013A   7A..         MOV     R2,#`?<Constant "rec shortAddress: 0x">` & 0xff
   \   00013C   7B..         MOV     R3,#(`?<Constant "rec shortAddress: 0x">` >> 8) & 0xff
   \   00013E   12....       LCALL   ??Subroutine18_0 & 0xFFFF
    442                //if(shortads == 0xff00) HalUARTWrite(0,"Get panId success",21);
    443                HalUARTWrite(0,&asc_16[reshortads/4096],1);
   \                     ??CrossCallReturnLabel_31:
   \   000141   85....       MOV     ?V0 + 0,?V0 + 6
   \   000144   85....       MOV     ?V0 + 1,?V0 + 7
   \   000147   740C         MOV     A,#0xc
   \   000149   78..         MOV     R0,#?V0 + 0
   \   00014B   12....       LCALL   ?US_SHR
   \   00014E   85..82       MOV     DPL,?XSP + 0
   \   000151   85..83       MOV     DPH,?XSP + 1
   \   000154   E582         MOV     A,DPL
   \   000156   25..         ADD     A,?V0 + 0
   \   000158   12....       LCALL   ??Subroutine17_0 & 0xFFFF
    444                HalUARTWrite(0,&asc_16[reshortads%4096/256],1);
   \                     ??CrossCallReturnLabel_28:
   \   00015B   A9..         MOV     R1,?V0 + 7
   \   00015D   12....       LCALL   ?Subroutine10 & 0xFFFF
   \                     ??CrossCallReturnLabel_14:
   \   000160   12....       LCALL   ?Subroutine5 & 0xFFFF
    445                HalUARTWrite(0,&asc_16[reshortads%256/16],1);
   \                     ??CrossCallReturnLabel_4:
   \   000163   12....       LCALL   ?Subroutine9 & 0xFFFF
   \                     ??CrossCallReturnLabel_11:
   \   000166   12....       LCALL   ?Subroutine5 & 0xFFFF
    446                HalUARTWrite(0,&asc_16[reshortads%16],1); 
   \                     ??CrossCallReturnLabel_5:
   \   000169   12....       LCALL   ?Subroutine2 & 0xFFFF
    447                HalUARTWrite(0,"\r\n",2);
    448                HalUARTWrite(0,"panId: 0x",9);
   \                     ??CrossCallReturnLabel_44:
   \   00016C                ; Setup parameters for call to function HalUARTWrite
   \   00016C   7C09         MOV     R4,#0x9
   \   00016E   7D00         MOV     R5,#0x0
   \   000170   7A..         MOV     R2,#`?<Constant "panId: 0x">` & 0xff
   \   000172   7B..         MOV     R3,#(`?<Constant "panId: 0x">` >> 8) & 0xff
   \   000174   12....       LCALL   ??Subroutine18_0 & 0xFFFF
    449                HalUARTWrite(0,&asc_16[panId/4096],1);
   \                     ??CrossCallReturnLabel_32:
   \   000177   8E..         MOV     ?V0 + 0,R6
   \   000179   8F..         MOV     ?V0 + 1,R7
   \   00017B   740C         MOV     A,#0xc
   \   00017D   78..         MOV     R0,#?V0 + 0
   \   00017F   12....       LCALL   ?US_SHR
   \   000182   85..82       MOV     DPL,?XSP + 0
   \   000185   85..83       MOV     DPH,?XSP + 1
   \   000188   E582         MOV     A,DPL
   \   00018A   25..         ADD     A,?V0 + 0
   \   00018C   12....       LCALL   ??Subroutine17_0 & 0xFFFF
    450                HalUARTWrite(0,&asc_16[panId%4096/256],1);
   \                     ??CrossCallReturnLabel_29:
   \   00018F   EF           MOV     A,R7
   \   000190   F9           MOV     R1,A
   \   000191   12....       LCALL   ?Subroutine10 & 0xFFFF
   \                     ??CrossCallReturnLabel_15:
   \   000194   12....       LCALL   ?Subroutine7 & 0xFFFF
    451                HalUARTWrite(0,&asc_16[panId%256/16],1);
   \                     ??CrossCallReturnLabel_8:
   \   000197   12....       LCALL   ?Subroutine9 & 0xFFFF
   \                     ??CrossCallReturnLabel_12:
   \   00019A   12....       LCALL   ?Subroutine7 & 0xFFFF
    452                HalUARTWrite(0,&asc_16[panId%16],1);
   \                     ??CrossCallReturnLabel_9:
   \   00019D   12....       LCALL   ?Subroutine2 & 0xFFFF
    453                HalUARTWrite(0,"\r\n",2);
    454                HalUARTWrite(0,"rssi: -",7);
   \                     ??CrossCallReturnLabel_45:
   \   0001A0                ; Setup parameters for call to function HalUARTWrite
   \   0001A0   7C07         MOV     R4,#0x7
   \   0001A2   7D00         MOV     R5,#0x0
   \   0001A4   7A..         MOV     R2,#`?<Constant "rssi: -">` & 0xff
   \   0001A6   7B..         MOV     R3,#(`?<Constant "rssi: -">` >> 8) & 0xff
   \   0001A8   12....       LCALL   ??Subroutine18_0 & 0xFFFF
    455                HalUARTWrite(0,&asc_16[RSI/100],1);
   \                     ??CrossCallReturnLabel_33:
   \   0001AB   75F064       MOV     B,#0x64
   \   0001AE   E5..         MOV     A,?V0 + 8
   \   0001B0   84           DIV     AB
   \   0001B1   F8           MOV     R0,A
   \   0001B2   85..82       MOV     DPL,?XSP + 0
   \   0001B5   85..83       MOV     DPH,?XSP + 1
   \   0001B8   E582         MOV     A,DPL
   \   0001BA   28           ADD     A,R0
   \   0001BB   12....       LCALL   ?Subroutine12 & 0xFFFF
    456                HalUARTWrite(0,&asc_16[RSI%10/10],1);
   \                     ??CrossCallReturnLabel_18:
   \   0001BE   E5..         MOV     A,?V0 + 8
   \   0001C0   75F00A       MOV     B,#0xa
   \   0001C3   84           DIV     AB
   \   0001C4   E5F0         MOV     A,B
   \   0001C6   F5..         MOV     ?V0 + 0,A
   \   0001C8                ; Setup parameters for call to function HalUARTWrite
   \   0001C8   7C01         MOV     R4,#0x1
   \   0001CA   7D00         MOV     R5,#0x0
   \   0001CC   75F00A       MOV     B,#0xa
   \   0001CF   12....       LCALL   ?Subroutine8 & 0xFFFF
    457                HalUARTWrite(0,&asc_16[RSI%10],1);
   \                     ??CrossCallReturnLabel_25:
   \   0001D2   85..82       MOV     DPL,?XSP + 0
   \   0001D5   85..83       MOV     DPH,?XSP + 1
   \   0001D8   E582         MOV     A,DPL
   \   0001DA   25..         ADD     A,?V0 + 0
   \   0001DC   12....       LCALL   ?Subroutine12 & 0xFFFF
    458                HalUARTWrite(0,"dBm\r\n",5);
   \                     ??CrossCallReturnLabel_19:
   \   0001DF                ; Setup parameters for call to function HalUARTWrite
   \   0001DF   7C05         MOV     R4,#0x5
   \   0001E1   7D00         MOV     R5,#0x0
   \   0001E3   7A..         MOV     R2,#`?<Constant "dBm\\r\\n">` & 0xff
   \   0001E5   7B..         MOV     R3,#(`?<Constant "dBm\\r\\n">` >> 8) & 0xff
   \   0001E7   7900         MOV     R1,#0x0
   \   0001E9   12....       LCALL   ??HalUARTWrite?relay
    459                HalUARTWrite(0,"channel: ",9);
   \   0001EC                ; Setup parameters for call to function HalUARTWrite
   \   0001EC   7C09         MOV     R4,#0x9
   \   0001EE   7D00         MOV     R5,#0x0
   \   0001F0   7A..         MOV     R2,#`?<Constant "channel: ">` & 0xff
   \   0001F2   7B..         MOV     R3,#(`?<Constant "channel: ">` >> 8) & 0xff
   \   0001F4   12....       LCALL   ??Subroutine18_0 & 0xFFFF
    460                HalUARTWrite(0,&asc_16[channels/10],1);
   \                     ??CrossCallReturnLabel_34:
   \   0001F7   75F00A       MOV     B,#0xa
   \   0001FA   E5..         MOV     A,?V0 + 9
   \   0001FC   12....       LCALL   ?Subroutine8 & 0xFFFF
    461                HalUARTWrite(0,&asc_16[channels%10],1);
   \                     ??CrossCallReturnLabel_26:
   \   0001FF   E5..         MOV     A,?V0 + 9
   \   000201   75F00A       MOV     B,#0xa
   \   000204   84           DIV     AB
   \   000205   A8F0         MOV     R0,B
   \   000207   12....       LCALL   ?Subroutine14 & 0xFFFF
   \                     ??CrossCallReturnLabel_20:
   \   00020A   12....       LCALL   ??Subroutine20_0 & 0xFFFF
    462                HalUARTWrite(0,"\r\n",2);
    463                HalUARTWrite(0,"\r\n",2);
   \                     ??CrossCallReturnLabel_46:
   \   00020D                ; Setup parameters for call to function HalUARTWrite
   \   00020D   7C02         MOV     R4,#0x2
   \   00020F   7D00         MOV     R5,#0x0
   \   000211   AA..         MOV     R2,?V0 + 2
   \   000213   AB..         MOV     R3,?V0 + 3
   \   000215   7900         MOV     R1,#0x0
   \   000217   12....       LCALL   ??HalUARTWrite?relay
    464                break;
    465              }
    466          }
   \                     ??SampleApp_MessageMSGCB_0:
   \   00021A   7410         MOV     A,#0x10
   \   00021C   12....       LCALL   ?DEALLOC_XSTACK8
   \   00021F   7F0A         MOV     R7,#0xa
   \   000221   02....       LJMP    ?BANKED_LEAVE_XDATA

   \                                 In  segment BANKED_CODE, align 1, keep-with-next
   \                     ?Subroutine12:
   \   000000   FA           MOV     R2,A
   \   000001   E583         MOV     A,DPH
   \   000003   3400         ADDC    A,#0x0
   \   000005   FB           MOV     R3,A
   \   000006   7900         MOV     R1,#0x0
   \   000008   12....       LCALL   ??HalUARTWrite?relay
   \   00000B   22           RET

   \                                 In  segment BANKED_CODE, align 1, keep-with-next
   \                     ?Subroutine10:
   \   000000   E4           CLR     A
   \   000001   C9           XCH     A,R1
   \   000002   540F         ANL     A,#0xf
   \   000004   F8           MOV     R0,A
   \   000005   12....       LCALL   ?Subroutine16 & 0xFFFF
   \                     ??CrossCallReturnLabel_23:
   \   000008   22           RET

   \                                 In  segment BANKED_CODE, align 1, keep-with-next
   \                     ?Subroutine16:
   \   000000   85..82       MOV     DPL,?XSP + 0
   \   000003   85..83       MOV     DPH,?XSP + 1
   \   000006   E582         MOV     A,DPL
   \   000008   28           ADD     A,R0
   \   000009   FA           MOV     R2,A
   \   00000A   E583         MOV     A,DPH
   \   00000C   3400         ADDC    A,#0x0
   \   00000E   FB           MOV     R3,A
   \   00000F   22           RET

   \                                 In  segment BANKED_CODE, align 1, keep-with-next
   \                     ?Subroutine9:
   \   000000   C4           SWAP    A
   \   000001   540F         ANL     A,#0xf
   \   000003   F8           MOV     R0,A
   \   000004   12....       LCALL   ?Subroutine14 & 0xFFFF
   \                     ??CrossCallReturnLabel_21:
   \   000007   22           RET

   \                                 In  segment BANKED_CODE, align 1, keep-with-next
   \                     ?Subroutine14:
   \   000000   12....       LCALL   ?Subroutine16 & 0xFFFF
   \                     ??CrossCallReturnLabel_24:
   \   000003   7900         MOV     R1,#0x0
   \   000005   22           RET

   \                                 In  segment BANKED_CODE, align 1, keep-with-next
   \                     ?Subroutine8:
   \   000000   84           DIV     AB
   \   000001   F8           MOV     R0,A
   \   000002   85..82       MOV     DPL,?XSP + 0
   \   000005   85..83       MOV     DPH,?XSP + 1
   \   000008   E582         MOV     A,DPL
   \   00000A   28           ADD     A,R0
   \   00000B                REQUIRE ??Subroutine17_0
   \   00000B                ; // Fall through to label ??Subroutine17_0

   \                                 In  segment BANKED_CODE, align 1, keep-with-next
   \                     ??Subroutine17_0:
   \   000000   FA           MOV     R2,A
   \   000001   E583         MOV     A,DPH
   \   000003   3400         ADDC    A,#0x0
   \   000005   FB           MOV     R3,A
   \   000006                REQUIRE ??Subroutine18_0
   \   000006                ; // Fall through to label ??Subroutine18_0

   \                                 In  segment BANKED_CODE, align 1, keep-with-next
   \                     ??Subroutine18_0:
   \   000000   7900         MOV     R1,#0x0
   \   000002   12....       LCALL   ?Subroutine13 & 0xFFFF
   \                     ??CrossCallReturnLabel_35:
   \   000005   22           RET

   \                                 In  segment BANKED_CODE, align 1, keep-with-next
   \                     ?Subroutine13:
   \   000000   12....       LCALL   ??HalUARTWrite?relay
   \   000003                ; Setup parameters for call to function HalUARTWrite
   \   000003                ; Setup parameters for call to function HalUARTWrite
   \   000003                ; Setup parameters for call to function HalUARTWrite
   \   000003                ; Setup parameters for call to function HalUARTWrite
   \   000003                ; Setup parameters for call to function HalUARTWrite
   \   000003                ; Setup parameters for call to function HalUARTWrite
   \   000003                ; Setup parameters for call to function HalUARTWrite
   \   000003                ; Setup parameters for call to function HalUARTWrite
   \   000003                ; Setup parameters for call to function HalUARTWrite
   \   000003                ; Setup parameters for call to function HalUARTWrite
   \   000003                ; Setup parameters for call to function HalUARTWrite
   \   000003                ; Setup parameters for call to function HalUARTWrite
   \   000003                ; Setup parameters for call to function HalUARTWrite
   \   000003                ; Setup parameters for call to function HalUARTWrite
   \   000003                ; Setup parameters for call to function HalUARTWrite
   \   000003                ; Setup parameters for call to function HalUARTWrite
   \   000003   7C01         MOV     R4,#0x1
   \   000005   7D00         MOV     R5,#0x0
   \   000007   22           RET

   \                                 In  segment BANKED_CODE, align 1, keep-with-next
   \                     ?Subroutine7:
   \   000000   12....       LCALL   ?Subroutine13 & 0xFFFF
   \                     ??CrossCallReturnLabel_36:
   \   000003   EE           MOV     A,R6
   \   000004   22           RET

   \                                 In  segment BANKED_CODE, align 1, keep-with-next
   \                     ?Subroutine6:
   \   000000   12....       LCALL   ?Subroutine15 & 0xFFFF
   \                     ??CrossCallReturnLabel_42:
   \   000003   F8           MOV     R0,A
   \   000004   A3           INC     DPTR
   \   000005   E0           MOVX    A,@DPTR
   \   000006   F583         MOV     DPH,A
   \   000008   8882         MOV     DPL,R0
   \   00000A   E0           MOVX    A,@DPTR
   \   00000B   22           RET

   \                                 In  segment BANKED_CODE, align 1, keep-with-next
   \                     ?Subroutine15:
   \   000000   E5..         MOV     A,?V0 + 2
   \   000002   2422         ADD     A,#0x22
   \   000004                REQUIRE ??Subroutine19_0
   \   000004                ; // Fall through to label ??Subroutine19_0

   \                                 In  segment BANKED_CODE, align 1, keep-with-next
   \                     ??Subroutine19_0:
   \   000000   F582         MOV     DPL,A
   \   000002   E5..         MOV     A,?V0 + 3
   \   000004   3400         ADDC    A,#0x0
   \   000006   F583         MOV     DPH,A
   \   000008   E0           MOVX    A,@DPTR
   \   000009   22           RET

   \                                 In  segment BANKED_CODE, align 1, keep-with-next
   \                     ?Subroutine5:
   \   000000   12....       LCALL   ?Subroutine13 & 0xFFFF
   \                     ??CrossCallReturnLabel_37:
   \   000003   E5..         MOV     A,?V0 + 6
   \   000005   22           RET

   \                                 In  segment BANKED_CODE, align 1, keep-with-next
   \                     ?Subroutine4:
   \   000000   12....       LCALL   ?Subroutine13 & 0xFFFF
   \                     ??CrossCallReturnLabel_38:
   \   000003   E5..         MOV     A,?V0 + 0
   \   000005   22           RET

   \                                 In  segment BANKED_CODE, align 1, keep-with-next
   \                     ?Subroutine3:
   \   000000   12....       LCALL   ?Subroutine15 & 0xFFFF
   \                     ??CrossCallReturnLabel_41:
   \   000003   28           ADD     A,R0
   \   000004   FA           MOV     R2,A
   \   000005   A3           INC     DPTR
   \   000006   E0           MOVX    A,@DPTR
   \   000007   3400         ADDC    A,#0x0
   \   000009   8A82         MOV     DPL,R2
   \   00000B   F583         MOV     DPH,A
   \   00000D   A3           INC     DPTR
   \   00000E   22           RET

   \                                 In  segment BANKED_CODE, align 1, keep-with-next
   \                     ?Subroutine2:
   \   000000   540F         ANL     A,#0xf
   \   000002   F8           MOV     R0,A
   \   000003   7900         MOV     R1,#0x0
   \   000005   12....       LCALL   ?Subroutine16 & 0xFFFF
   \                     ??CrossCallReturnLabel_22:
   \   000008                REQUIRE ??Subroutine20_0
   \   000008                ; // Fall through to label ??Subroutine20_0

   \                                 In  segment BANKED_CODE, align 1, keep-with-next
   \                     ??Subroutine20_0:
   \   000000   12....       LCALL   ??HalUARTWrite?relay
   \   000003                ; Setup parameters for call to function HalUARTWrite
   \   000003                ; Setup parameters for call to function HalUARTWrite
   \   000003                ; Setup parameters for call to function HalUARTWrite
   \   000003                ; Setup parameters for call to function HalUARTWrite
   \   000003   7C02         MOV     R4,#0x2
   \   000005   7D00         MOV     R5,#0x0
   \   000007   AA..         MOV     R2,?V0 + 2
   \   000009   AB..         MOV     R3,?V0 + 3
   \   00000B   7900         MOV     R1,#0x0
   \   00000D   12....       LCALL   ??HalUARTWrite?relay
   \   000010   22           RET
    467          
    468          
    469          /*********************************************************************
    470           * @fn      SampleApp_SendPeriodicMessage
    471           *
    472           * @brief   Send the periodic message.
    473           *
    474           * @param   none
    475           *
    476           * @return  none
    477           */

   \                                 In  segment BANKED_CODE, align 1, keep-with-next
    478          void SampleApp_SendPeriodicMessage( void )
   \                     SampleApp_SendPeriodicMessage:
    479          {
   \   000000   74F6         MOV     A,#-0xa
   \   000002   12....       LCALL   ?BANKED_ENTER_XDATA
   \   000005                ; Saved register size: 10
   \   000005                ; Auto size: 0
    480            
    481            
    482            if ( AF_DataRequest( &SampleApp_Periodic_DstAddr, &SampleApp_epDesc,
    483                                 SAMPLEAPP_PERIODIC_CLUSTERID,
    484                                 buffer[0]+1,
    485                                 buffer,
    486                                 &SampleApp_TransID,
    487                                 AF_DISCV_ROUTE,
    488                                 AF_DEFAULT_RADIUS ) == afStatus_SUCCESS )
   \   000005                ; Setup parameters for call to function AF_DataRequest
   \   000005   75..1E       MOV     ?V0 + 0,#0x1e
   \   000008   78..         MOV     R0,#?V0 + 0
   \   00000A   12....       LCALL   ?PUSH_XSTACK_I_ONE
   \   00000D   75....       MOV     ?V0 + 0,#SampleApp_TransID & 0xff
   \   000010   75....       MOV     ?V0 + 1,#(SampleApp_TransID >> 8) & 0xff
   \   000013   78..         MOV     R0,#?V0 + 0
   \   000015   12....       LCALL   ?PUSH_XSTACK_I_TWO
   \   000018   75....       MOV     ?V0 + 0,#buffer & 0xff
   \   00001B   75....       MOV     ?V0 + 1,#(buffer >> 8) & 0xff
   \   00001E   78..         MOV     R0,#?V0 + 0
   \   000020   12....       LCALL   ?PUSH_XSTACK_I_TWO
   \   000023   90....       MOV     DPTR,#buffer
   \   000026   E0           MOVX    A,@DPTR
   \   000027   12....       LCALL   ?Subroutine11 & 0xFFFF
   \                     ??CrossCallReturnLabel_16:
   \   00002A   12....       LCALL   ?PUSH_XSTACK_I_TWO
   \   00002D   75..01       MOV     ?V0 + 0,#0x1
   \   000030   75..00       MOV     ?V0 + 1,#0x0
   \   000033   78..         MOV     R0,#?V0 + 0
   \   000035   12....       LCALL   ?PUSH_XSTACK_I_TWO
   \   000038   7920         MOV     R1,#0x20
   \   00003A   7C..         MOV     R4,#SampleApp_epDesc & 0xff
   \   00003C   7D..         MOV     R5,#(SampleApp_epDesc >> 8) & 0xff
   \   00003E   7A..         MOV     R2,#SampleApp_Periodic_DstAddr & 0xff
   \   000040   7B..         MOV     R3,#(SampleApp_Periodic_DstAddr >> 8) & 0xff
   \   000042   12....       LCALL   ??AF_DataRequest?relay
   \   000045   7409         MOV     A,#0x9
   \   000047                REQUIRE ?Subroutine1
   \   000047                ; // Fall through to label ?Subroutine1
    489            {
    490            }
    491            else
    492            {
    493              // Error occurred in request to send.
    494            }
    495          }

   \                                 In  segment BANKED_CODE, align 1, keep-with-next
   \                     ?Subroutine1:
   \   000000   12....       LCALL   ?DEALLOC_XSTACK8
   \   000003                REQUIRE ??Subroutine21_0
   \   000003                ; // Fall through to label ??Subroutine21_0

   \                                 In  segment BANKED_CODE, align 1, keep-with-next
   \                     ?Subroutine11:
   \   000000   2401         ADD     A,#0x1
   \   000002   F5..         MOV     ?V0 + 0,A
   \   000004   E4           CLR     A
   \   000005   3400         ADDC    A,#0x0
   \   000007   F5..         MOV     ?V0 + 1,A
   \   000009   78..         MOV     R0,#?V0 + 0
   \   00000B   22           RET

   \                                 In  segment BANKED_CODE, align 1, keep-with-next
    496          void SampleApp_SendFlashMessage( uint16 flashTime )
   \                     SampleApp_SendFlashMessage:
    497          {
   \   000000   74F6         MOV     A,#-0xa
   \   000002   12....       LCALL   ?BANKED_ENTER_XDATA
   \   000005                ; Saved register size: 10
   \   000005                ; Auto size: 3
   \   000005   74FD         MOV     A,#-0x3
   \   000007   12....       LCALL   ?ALLOC_XSTACK8
    498            uint8 buffer[3];
    499            buffer[0] = (uint8)(SampleAppFlashCounter++);
   \   00000A   90....       MOV     DPTR,#SampleAppFlashCounter
   \   00000D   E0           MOVX    A,@DPTR
   \   00000E   85..82       MOV     DPL,?XSP + 0
   \   000011   85..83       MOV     DPH,?XSP + 1
   \   000014   F0           MOVX    @DPTR,A
   \   000015   90....       MOV     DPTR,#SampleAppFlashCounter
   \   000018   E0           MOVX    A,@DPTR
   \   000019   04           INC     A
   \   00001A   F0           MOVX    @DPTR,A
    500            buffer[1] = LO_UINT16( flashTime );
   \   00001B   7401         MOV     A,#0x1
   \   00001D   12....       LCALL   ?XSTACK_DISP0_8
   \   000020   EA           MOV     A,R2
   \   000021   F0           MOVX    @DPTR,A
    501            buffer[2] = HI_UINT16( flashTime );
   \   000022   7402         MOV     A,#0x2
   \   000024   12....       LCALL   ?XSTACK_DISP0_8
   \   000027   EB           MOV     A,R3
   \   000028   F0           MOVX    @DPTR,A
    502          
    503            if ( AF_DataRequest( &SampleApp_Flash_DstAddr, &SampleApp_epDesc,
    504                                 SAMPLEAPP_FLASH_CLUSTERID,
    505                                 3,
    506                                 buffer,
    507                                 &SampleApp_TransID,
    508                                 AF_DISCV_ROUTE,
    509                                 AF_DEFAULT_RADIUS ) == afStatus_SUCCESS )
   \   000029                ; Setup parameters for call to function AF_DataRequest
   \   000029   75..1E       MOV     ?V0 + 0,#0x1e
   \   00002C   78..         MOV     R0,#?V0 + 0
   \   00002E   12....       LCALL   ?PUSH_XSTACK_I_ONE
   \   000031   75....       MOV     ?V0 + 0,#SampleApp_TransID & 0xff
   \   000034   75....       MOV     ?V0 + 1,#(SampleApp_TransID >> 8) & 0xff
   \   000037   78..         MOV     R0,#?V0 + 0
   \   000039   12....       LCALL   ?PUSH_XSTACK_I_TWO
   \   00003C   7403         MOV     A,#0x3
   \   00003E   12....       LCALL   ?XSTACK_DISP0_8
   \   000041   8582..       MOV     ?V0 + 0,DPL
   \   000044   8583..       MOV     ?V0 + 1,DPH
   \   000047   78..         MOV     R0,#?V0 + 0
   \   000049   12....       LCALL   ?PUSH_XSTACK_I_TWO
   \   00004C   75..03       MOV     ?V0 + 0,#0x3
   \   00004F   75..00       MOV     ?V0 + 1,#0x0
   \   000052   78..         MOV     R0,#?V0 + 0
   \   000054   12....       LCALL   ?PUSH_XSTACK_I_TWO
   \   000057   75..02       MOV     ?V0 + 0,#0x2
   \   00005A   78..         MOV     R0,#?V0 + 0
   \   00005C   12....       LCALL   ?PUSH_XSTACK_I_TWO
   \   00005F   7920         MOV     R1,#0x20
   \   000061   7C..         MOV     R4,#SampleApp_epDesc & 0xff
   \   000063   7D..         MOV     R5,#(SampleApp_epDesc >> 8) & 0xff
   \   000065   7A..         MOV     R2,#SampleApp_Flash_DstAddr & 0xff
   \   000067   7B..         MOV     R3,#(SampleApp_Flash_DstAddr >> 8) & 0xff
   \   000069   12....       LCALL   ??AF_DataRequest?relay
   \   00006C   7409         MOV     A,#0x9
   \   00006E   12....       LCALL   ?DEALLOC_XSTACK8
    510            {
    511            }
    512            else
    513            {
    514              // Error occurred in request to send.
    515            }
    516          }
   \   000071   7403         MOV     A,#0x3
   \   000073   80..         SJMP    ?Subroutine1

   \                                 In  segment BANKED_CODE, align 1, keep-with-next
    517          void SampleApp_SerialCMD(mtOSALSerialData_t *cmdMsg)
   \                     SampleApp_SerialCMD:
    518          {
   \   000000   74F4         MOV     A,#-0xc
   \   000002   12....       LCALL   ?BANKED_ENTER_XDATA
   \   000005                ; Saved register size: 12
   \   000005                ; Auto size: 0
    519            uint8 len,*str=NULL;     //len有用数据长度
    520            str=cmdMsg->msg;          //指向数据开头
   \   000005   8A82         MOV     DPL,R2
   \   000007   8B83         MOV     DPH,R3
   \   000009   A3           INC     DPTR
   \   00000A   A3           INC     DPTR
   \   00000B   E0           MOVX    A,@DPTR
   \   00000C   F5..         MOV     ?V0 + 0,A
   \   00000E   A3           INC     DPTR
   \   00000F   E0           MOVX    A,@DPTR
   \   000010   F5..         MOV     ?V0 + 1,A
    521            len=*str;                 //msg里的第1个字节代表后面的数据长度
   \   000012   85..82       MOV     DPL,?V0 + 0
   \   000015   F583         MOV     DPH,A
   \   000017   E0           MOVX    A,@DPTR
   \   000018   FE           MOV     R6,A
    522            
    523            
    524            /*for(i=1;i<=len;i++)
    525            HalUARTWrite(0,str+i,1 ); 
    526            HalUARTWrite(0,"\n",1 );//换行  */
    527            
    528          
    529           HalLedBlink(HAL_LED_1, 5,50,500 );
   \   000019                ; Setup parameters for call to function HalLedBlink
   \   000019   7CF4         MOV     R4,#-0xc
   \   00001B   7D01         MOV     R5,#0x1
   \   00001D   7B32         MOV     R3,#0x32
   \   00001F   7A05         MOV     R2,#0x5
   \   000021   7901         MOV     R1,#0x1
   \   000023   12....       LCALL   ??HalLedBlink?relay
    530            
    531           if ( AF_DataRequest( &SampleApp_Periodic_DstAddr, &SampleApp_epDesc,
    532          	                    SAMPLEAPP_COM_CLUSTERID,//自己定义一个
    533          	                    len+1,                  // 数据长度         
    534                                      str,                     //数据内容
    535          	                    &SampleApp_TransID, 
    536          	                    AF_DISCV_ROUTE,
    537          	                    AF_DEFAULT_RADIUS ) == afStatus_SUCCESS )
   \   000026                ; Setup parameters for call to function AF_DataRequest
   \   000026   75..1E       MOV     ?V0 + 2,#0x1e
   \   000029   78..         MOV     R0,#?V0 + 2
   \   00002B   12....       LCALL   ?PUSH_XSTACK_I_ONE
   \   00002E   75....       MOV     ?V0 + 2,#SampleApp_TransID & 0xff
   \   000031   75....       MOV     ?V0 + 3,#(SampleApp_TransID >> 8) & 0xff
   \   000034   78..         MOV     R0,#?V0 + 2
   \   000036   12....       LCALL   ?PUSH_XSTACK_I_TWO
   \   000039   78..         MOV     R0,#?V0 + 0
   \   00003B   12....       LCALL   ?PUSH_XSTACK_I_TWO
   \   00003E   EE           MOV     A,R6
   \   00003F   12....       LCALL   ?Subroutine11 & 0xFFFF
   \                     ??CrossCallReturnLabel_17:
   \   000042   12....       LCALL   ?PUSH_XSTACK_I_TWO
   \   000045   75..03       MOV     ?V0 + 0,#0x3
   \   000048   75..00       MOV     ?V0 + 1,#0x0
   \   00004B   78..         MOV     R0,#?V0 + 0
   \   00004D   12....       LCALL   ?PUSH_XSTACK_I_TWO
   \   000050   7920         MOV     R1,#0x20
   \   000052   7C..         MOV     R4,#SampleApp_epDesc & 0xff
   \   000054   7D..         MOV     R5,#(SampleApp_epDesc >> 8) & 0xff
   \   000056   7A..         MOV     R2,#SampleApp_Periodic_DstAddr & 0xff
   \   000058   7B..         MOV     R3,#(SampleApp_Periodic_DstAddr >> 8) & 0xff
   \   00005A   12....       LCALL   ??AF_DataRequest?relay
   \   00005D   7409         MOV     A,#0x9
   \   00005F   12....       LCALL   ?DEALLOC_XSTACK8
    538          	                     {
    539          	                     }
    540            else
    541            {
    542            // Error occurred in request to send.
    543            } 
    544          }
   \   000062   02....       LJMP    ?Subroutine0 & 0xFFFF

   \                                 In  segment BANK_RELAYS, align 1
   \                     ??SampleApp_Init?relay:
   \   000000   12....       LCALL   ?BDISPATCH
   \   000003   ......       DC24    SampleApp_Init

   \                                 In  segment BANK_RELAYS, align 1
   \                     ??SampleApp_ProcessEvent?relay:
   \   000000   12....       LCALL   ?BDISPATCH
   \   000003   ......       DC24    SampleApp_ProcessEvent

   \                                 In  segment BANK_RELAYS, align 1
   \                     ??SampleApp_HandleKeys?relay:
   \   000000   12....       LCALL   ?BDISPATCH
   \   000003   ......       DC24    SampleApp_HandleKeys

   \                                 In  segment BANK_RELAYS, align 1
   \                     ??SampleApp_MessageMSGCB?relay:
   \   000000   12....       LCALL   ?BDISPATCH
   \   000003   ......       DC24    SampleApp_MessageMSGCB

   \                                 In  segment BANK_RELAYS, align 1
   \                     ??SampleApp_SendPeriodicMessage?relay:
   \   000000   12....       LCALL   ?BDISPATCH
   \   000003   ......       DC24    SampleApp_SendPeriodicMessage

   \                                 In  segment BANK_RELAYS, align 1
   \                     ??SampleApp_SendFlashMessage?relay:
   \   000000   12....       LCALL   ?BDISPATCH
   \   000003   ......       DC24    SampleApp_SendFlashMessage

   \                                 In  segment BANK_RELAYS, align 1
   \                     ??SampleApp_SerialCMD?relay:
   \   000000   12....       LCALL   ?BDISPATCH
   \   000003   ......       DC24    SampleApp_SerialCMD

   \                                 In  segment XDATA_ROM_C, align 1
   \                     `?<Constant "Hello World\\n">`:
   \   000000   48656C6C     DB "Hello World\012"
   \            6F20576F
   \            726C640A
   \            00      

   \                                 In  segment XDATA_ROM_C, align 1
   \                     `?<Constant "Group 1">`:
   \   000000   47726F75     DB "Group 1"
   \            70203100

   \                                 In  segment XDATA_ROM_C, align 1
   \                     `?<Constant "SampleApp">`:
   \   000000   53616D70     DB "SampleApp"
   \            6C654170
   \            7000    

   \                                 In  segment XDATA_ROM_C, align 1
   \                     `?<Constant {48, 49, 50, 51, 52, 53, 54, 55, 56`:
   \   000000   30           DB 48
   \   000001   31           DB 49
   \   000002   32           DB 50
   \   000003   33           DB 51
   \   000004   34           DB 52
   \   000005   35           DB 53
   \   000006   36           DB 54
   \   000007   37           DB 55
   \   000008   38           DB 56
   \   000009   39           DB 57
   \   00000A   41           DB 65
   \   00000B   42           DB 66
   \   00000C   43           DB 67
   \   00000D   44           DB 68
   \   00000E   45           DB 69
   \   00000F   46           DB 70

   \                                 In  segment XDATA_ROM_C, align 1
   \                     `?<Constant "Data:">`:
   \   000000   44617461     DB "Data:"
   \            3A00    

   \                                 In  segment XDATA_ROM_C, align 1
   \                     `?<Constant "\\r\\n">`:
   \   000000   0D0A00       DB "\015\012"

   \                                 In  segment XDATA_ROM_C, align 1
   \                     `?<Constant "shortAddress: 0x">`:
   \   000000   73686F72     DB "shortAddress: 0x"
   \            74416464
   \            72657373
   \            3A203078
   \            00      

   \                                 In  segment XDATA_ROM_C, align 1
   \                     `?<Constant "rec shortAddress: 0x">`:
   \   000000   72656320     DB "rec shortAddress: 0x"
   \            73686F72
   \            74416464
   \            72657373
   \            3A203078
   \            00      

   \                                 In  segment XDATA_ROM_C, align 1
   \                     `?<Constant "panId: 0x">`:
   \   000000   70616E49     DB "panId: 0x"
   \            643A2030
   \            7800    

   \                                 In  segment XDATA_ROM_C, align 1
   \                     `?<Constant "rssi: -">`:
   \   000000   72737369     DB "rssi: -"
   \            3A202D00

   \                                 In  segment XDATA_ROM_C, align 1
   \                     `?<Constant "dBm\\r\\n">`:
   \   000000   64426D0D     DB "dBm\015\012"
   \            0A00    

   \                                 In  segment XDATA_ROM_C, align 1
   \                     `?<Constant "channel: ">`:
   \   000000   6368616E     DB "channel: "
   \            6E656C3A
   \            2000    

   Maximum stack usage in bytes:

     Function                       ISTACK PSTACK XSTACK
     --------                       ------ ------ ------
     SampleApp_HandleKeys               0      0     22
       -> SampleApp_SendFlashMessage
                                        0      0     20
       -> aps_FindGroup                 0      0     20
       -> aps_RemoveGroup               0      0     20
       -> aps_AddGroup                  0      0     20
     SampleApp_Init                     0      0     14
       -> MT_UartInit                   0      0     22
       -> MT_UartRegisterTaskID         0      0     22
       -> HalUARTWrite                  0      0     22
       -> afRegister                    0      0     22
       -> RegisterForKeys               0      0     22
       -> osal_memcpy                   0      0     28
       -> aps_AddGroup                  0      0     22
       -> HalLcdWriteString             0      0     22
     SampleApp_MessageMSGCB             2      0     46
       -> HalLedBlink                   0      0     68
       -> SampleApp_SendPeriodicMessage
                                        0      0     68
       -> NLME_GetShortAddr             0      0     68
       -> HalUARTWrite                  0      0     68
       -> HalUARTWrite                  0      0     68
       -> HalUARTWrite                  0      0     68
       -> HalUARTWrite                  0      0     68
       -> HalUARTWrite                  0      0     68
       -> HalUARTWrite                  0      0     68
       -> HalUARTWrite                  0      0     68
       -> HalUARTWrite                  0      0     68
       -> HalUARTWrite                  0      0     68
       -> HalUARTWrite                  0      0     68
       -> HalUARTWrite                  0      0     68
       -> HalUARTWrite                  0      0     68
       -> HalUARTWrite                  0      0     68
       -> HalUARTWrite                  0      0     68
       -> HalUARTWrite                  0      0     68
       -> HalUARTWrite                  0      0     68
       -> HalUARTWrite                  0      0     68
       -> HalUARTWrite                  0      0     68
       -> HalUARTWrite                  0      0     68
       -> HalUARTWrite                  0      0     68
       -> HalUARTWrite                  0      0     68
       -> HalUARTWrite                  0      0     68
       -> HalUARTWrite                  0      0     68
       -> HalUARTWrite                  0      0     68
       -> HalUARTWrite                  0      0     68
       -> HalUARTWrite                  0      0     68
       -> HalUARTWrite                  0      0     68
       -> HalUARTWrite                  0      0     68
       -> HalUARTWrite                  0      0     68
       -> HalUARTWrite                  0      0     68
       -> HalUARTWrite                  0      0     68
     SampleApp_ProcessEvent             0      0     12
       -> osal_msg_receive              0      0     24
       -> osal_start_timerEx            0      0     24
       -> osal_msg_deallocate           0      0     24
       -> osal_msg_receive              0      0     24
       -> SampleApp_SerialCMD           0      0     24
       -> SampleApp_HandleKeys          0      0     24
       -> SampleApp_MessageMSGCB        0      0     24
       -> osal_rand                     0      0     24
       -> osal_start_timerEx            0      0     24
     SampleApp_SendFlashMessage         1      0     32
       -> AF_DataRequest                0      0     44
     SampleApp_SendPeriodicMessage      0      0     53
       -> AF_DataRequest                0      0     38
     SampleApp_SerialCMD                0      0     33
       -> HalLedBlink                   0      0     24
       -> AF_DataRequest                0      0     42


   Segment part sizes:

     Function/Label                                 Bytes
     --------------                                 -----
     SampleApp_ClusterList                             6
     SampleApp_SimpleDesc                             12
     SampleApp_epDesc                                  6
     SampleApp_TaskID                                  1
     SampleApp_NwkState                                1
     SampleApp_TransID                                 1
     SampleApp_Periodic_DstAddr                       12
     SampleApp_Flash_DstAddr                          12
     SampleApp_Group                                  18
     SampleAppPeriodicCounter                          1
     SampleAppFlashCounter                             1
     SampleApp_Init                                  181
     SampleApp_ProcessEvent                          188
     ?Subroutine0                                      5
     SampleApp_HandleKeys                             62
     ??Subroutine21_0                                  5
     buffer                                          100
     len1                                              1
     SampleApp_MessageMSGCB                          548
     ?Subroutine12                                    12
     ?Subroutine10                                     9
     ?Subroutine16                                    16
     ?Subroutine9                                      8
     ?Subroutine14                                     6
     ?Subroutine8                                     11
     ??Subroutine17_0                                  6
     ??Subroutine18_0                                  6
     ?Subroutine13                                     8
     ?Subroutine7                                      5
     ?Subroutine6                                     12
     ?Subroutine15                                     4
     ??Subroutine19_0                                 10
     ?Subroutine5                                      6
     ?Subroutine4                                      6
     ?Subroutine3                                     15
     ?Subroutine2                                      8
     ??Subroutine20_0                                 17
     SampleApp_SendPeriodicMessage                    71
     ?Subroutine1                                      3
     ?Subroutine11                                    12
     SampleApp_SendFlashMessage                      117
     SampleApp_SerialCMD                             101
     ??SampleApp_Init?relay                            6
     ??SampleApp_ProcessEvent?relay                    6
     ??SampleApp_HandleKeys?relay                      6
     ??SampleApp_MessageMSGCB?relay                    6
     ??SampleApp_SendPeriodicMessage?relay             6
     ??SampleApp_SendFlashMessage?relay                6
     ??SampleApp_SerialCMD?relay                       6
     ?<Constant "Hello World\n">                      13
     ?<Constant "Group 1">                             8
     ?<Constant "SampleApp">                          10
     ?<Constant {48, 49, 50, 51, 52, 53, 54, 55, 56   16
     ?<Constant "Data:">                               6
     ?<Constant "\r\n">                                3
     ?<Constant "shortAddress: 0x">                   17
     ?<Constant "rec shortAddress: 0x">               21
     ?<Constant "panId: 0x">                          10
     ?<Constant "rssi: -">                             8
     ?<Constant "dBm\r\n">                             6
     ?<Constant "channel: ">                          10

 
 1 458 bytes in segment BANKED_CODE
    42 bytes in segment BANK_RELAYS
   146 bytes in segment XDATA_ROM_C
   154 bytes in segment XDATA_Z
 
 1 500 bytes of CODE  memory
   146 bytes of CONST memory
   154 bytes of XDATA memory

Errors: none
Warnings: none
